
ctarget:     file format elf64-x86-64


Disassembly of section .init:

0000000000400c48 <_init>:
  400c48:	48 83 ec 08          	sub    $0x8,%rsp
  400c4c:	48 8b 05 a5 33 20 00 	mov    0x2033a5(%rip),%rax        # 603ff8 <__gmon_start__>
  400c53:	48 85 c0             	test   %rax,%rax
  400c56:	74 02                	je     400c5a <_init+0x12>
  400c58:	ff d0                	callq  *%rax
  400c5a:	48 83 c4 08          	add    $0x8,%rsp
  400c5e:	c3                   	retq   

Disassembly of section .plt:

0000000000400c60 <.plt>:
  400c60:	ff 35 a2 33 20 00    	pushq  0x2033a2(%rip)        # 604008 <_GLOBAL_OFFSET_TABLE_+0x8>
  400c66:	ff 25 a4 33 20 00    	jmpq   *0x2033a4(%rip)        # 604010 <_GLOBAL_OFFSET_TABLE_+0x10>
  400c6c:	0f 1f 40 00          	nopl   0x0(%rax)

0000000000400c70 <strcasecmp@plt>:
  400c70:	ff 25 a2 33 20 00    	jmpq   *0x2033a2(%rip)        # 604018 <strcasecmp@GLIBC_2.2.5>
  400c76:	68 00 00 00 00       	pushq  $0x0
  400c7b:	e9 e0 ff ff ff       	jmpq   400c60 <.plt>

0000000000400c80 <__errno_location@plt>:
  400c80:	ff 25 9a 33 20 00    	jmpq   *0x20339a(%rip)        # 604020 <__errno_location@GLIBC_2.2.5>
  400c86:	68 01 00 00 00       	pushq  $0x1
  400c8b:	e9 d0 ff ff ff       	jmpq   400c60 <.plt>

0000000000400c90 <srandom@plt>:
  400c90:	ff 25 92 33 20 00    	jmpq   *0x203392(%rip)        # 604028 <srandom@GLIBC_2.2.5>
  400c96:	68 02 00 00 00       	pushq  $0x2
  400c9b:	e9 c0 ff ff ff       	jmpq   400c60 <.plt>

0000000000400ca0 <strncmp@plt>:
  400ca0:	ff 25 8a 33 20 00    	jmpq   *0x20338a(%rip)        # 604030 <strncmp@GLIBC_2.2.5>
  400ca6:	68 03 00 00 00       	pushq  $0x3
  400cab:	e9 b0 ff ff ff       	jmpq   400c60 <.plt>

0000000000400cb0 <strcpy@plt>:
  400cb0:	ff 25 82 33 20 00    	jmpq   *0x203382(%rip)        # 604038 <strcpy@GLIBC_2.2.5>
  400cb6:	68 04 00 00 00       	pushq  $0x4
  400cbb:	e9 a0 ff ff ff       	jmpq   400c60 <.plt>

0000000000400cc0 <puts@plt>:
  400cc0:	ff 25 7a 33 20 00    	jmpq   *0x20337a(%rip)        # 604040 <puts@GLIBC_2.2.5>
  400cc6:	68 05 00 00 00       	pushq  $0x5
  400ccb:	e9 90 ff ff ff       	jmpq   400c60 <.plt>

0000000000400cd0 <write@plt>:
  400cd0:	ff 25 72 33 20 00    	jmpq   *0x203372(%rip)        # 604048 <write@GLIBC_2.2.5>
  400cd6:	68 06 00 00 00       	pushq  $0x6
  400cdb:	e9 80 ff ff ff       	jmpq   400c60 <.plt>

0000000000400ce0 <__stack_chk_fail@plt>:
  400ce0:	ff 25 6a 33 20 00    	jmpq   *0x20336a(%rip)        # 604050 <__stack_chk_fail@GLIBC_2.4>
  400ce6:	68 07 00 00 00       	pushq  $0x7
  400ceb:	e9 70 ff ff ff       	jmpq   400c60 <.plt>

0000000000400cf0 <mmap@plt>:
  400cf0:	ff 25 62 33 20 00    	jmpq   *0x203362(%rip)        # 604058 <mmap@GLIBC_2.2.5>
  400cf6:	68 08 00 00 00       	pushq  $0x8
  400cfb:	e9 60 ff ff ff       	jmpq   400c60 <.plt>

0000000000400d00 <memset@plt>:
  400d00:	ff 25 5a 33 20 00    	jmpq   *0x20335a(%rip)        # 604060 <memset@GLIBC_2.2.5>
  400d06:	68 09 00 00 00       	pushq  $0x9
  400d0b:	e9 50 ff ff ff       	jmpq   400c60 <.plt>

0000000000400d10 <alarm@plt>:
  400d10:	ff 25 52 33 20 00    	jmpq   *0x203352(%rip)        # 604068 <alarm@GLIBC_2.2.5>
  400d16:	68 0a 00 00 00       	pushq  $0xa
  400d1b:	e9 40 ff ff ff       	jmpq   400c60 <.plt>

0000000000400d20 <close@plt>:
  400d20:	ff 25 4a 33 20 00    	jmpq   *0x20334a(%rip)        # 604070 <close@GLIBC_2.2.5>
  400d26:	68 0b 00 00 00       	pushq  $0xb
  400d2b:	e9 30 ff ff ff       	jmpq   400c60 <.plt>

0000000000400d30 <read@plt>:
  400d30:	ff 25 42 33 20 00    	jmpq   *0x203342(%rip)        # 604078 <read@GLIBC_2.2.5>
  400d36:	68 0c 00 00 00       	pushq  $0xc
  400d3b:	e9 20 ff ff ff       	jmpq   400c60 <.plt>

0000000000400d40 <signal@plt>:
  400d40:	ff 25 3a 33 20 00    	jmpq   *0x20333a(%rip)        # 604080 <signal@GLIBC_2.2.5>
  400d46:	68 0d 00 00 00       	pushq  $0xd
  400d4b:	e9 10 ff ff ff       	jmpq   400c60 <.plt>

0000000000400d50 <gethostbyname@plt>:
  400d50:	ff 25 32 33 20 00    	jmpq   *0x203332(%rip)        # 604088 <gethostbyname@GLIBC_2.2.5>
  400d56:	68 0e 00 00 00       	pushq  $0xe
  400d5b:	e9 00 ff ff ff       	jmpq   400c60 <.plt>

0000000000400d60 <__memmove_chk@plt>:
  400d60:	ff 25 2a 33 20 00    	jmpq   *0x20332a(%rip)        # 604090 <__memmove_chk@GLIBC_2.3.4>
  400d66:	68 0f 00 00 00       	pushq  $0xf
  400d6b:	e9 f0 fe ff ff       	jmpq   400c60 <.plt>

0000000000400d70 <strtol@plt>:
  400d70:	ff 25 22 33 20 00    	jmpq   *0x203322(%rip)        # 604098 <strtol@GLIBC_2.2.5>
  400d76:	68 10 00 00 00       	pushq  $0x10
  400d7b:	e9 e0 fe ff ff       	jmpq   400c60 <.plt>

0000000000400d80 <memcpy@plt>:
  400d80:	ff 25 1a 33 20 00    	jmpq   *0x20331a(%rip)        # 6040a0 <memcpy@GLIBC_2.14>
  400d86:	68 11 00 00 00       	pushq  $0x11
  400d8b:	e9 d0 fe ff ff       	jmpq   400c60 <.plt>

0000000000400d90 <time@plt>:
  400d90:	ff 25 12 33 20 00    	jmpq   *0x203312(%rip)        # 6040a8 <time@GLIBC_2.2.5>
  400d96:	68 12 00 00 00       	pushq  $0x12
  400d9b:	e9 c0 fe ff ff       	jmpq   400c60 <.plt>

0000000000400da0 <random@plt>:
  400da0:	ff 25 0a 33 20 00    	jmpq   *0x20330a(%rip)        # 6040b0 <random@GLIBC_2.2.5>
  400da6:	68 13 00 00 00       	pushq  $0x13
  400dab:	e9 b0 fe ff ff       	jmpq   400c60 <.plt>

0000000000400db0 <_IO_getc@plt>:
  400db0:	ff 25 02 33 20 00    	jmpq   *0x203302(%rip)        # 6040b8 <_IO_getc@GLIBC_2.2.5>
  400db6:	68 14 00 00 00       	pushq  $0x14
  400dbb:	e9 a0 fe ff ff       	jmpq   400c60 <.plt>

0000000000400dc0 <__isoc99_sscanf@plt>:
  400dc0:	ff 25 fa 32 20 00    	jmpq   *0x2032fa(%rip)        # 6040c0 <__isoc99_sscanf@GLIBC_2.7>
  400dc6:	68 15 00 00 00       	pushq  $0x15
  400dcb:	e9 90 fe ff ff       	jmpq   400c60 <.plt>

0000000000400dd0 <munmap@plt>:
  400dd0:	ff 25 f2 32 20 00    	jmpq   *0x2032f2(%rip)        # 6040c8 <munmap@GLIBC_2.2.5>
  400dd6:	68 16 00 00 00       	pushq  $0x16
  400ddb:	e9 80 fe ff ff       	jmpq   400c60 <.plt>

0000000000400de0 <__printf_chk@plt>:
  400de0:	ff 25 ea 32 20 00    	jmpq   *0x2032ea(%rip)        # 6040d0 <__printf_chk@GLIBC_2.3.4>
  400de6:	68 17 00 00 00       	pushq  $0x17
  400deb:	e9 70 fe ff ff       	jmpq   400c60 <.plt>

0000000000400df0 <fopen@plt>:
  400df0:	ff 25 e2 32 20 00    	jmpq   *0x2032e2(%rip)        # 6040d8 <fopen@GLIBC_2.2.5>
  400df6:	68 18 00 00 00       	pushq  $0x18
  400dfb:	e9 60 fe ff ff       	jmpq   400c60 <.plt>

0000000000400e00 <getopt@plt>:
  400e00:	ff 25 da 32 20 00    	jmpq   *0x2032da(%rip)        # 6040e0 <getopt@GLIBC_2.2.5>
  400e06:	68 19 00 00 00       	pushq  $0x19
  400e0b:	e9 50 fe ff ff       	jmpq   400c60 <.plt>

0000000000400e10 <strtoul@plt>:
  400e10:	ff 25 d2 32 20 00    	jmpq   *0x2032d2(%rip)        # 6040e8 <strtoul@GLIBC_2.2.5>
  400e16:	68 1a 00 00 00       	pushq  $0x1a
  400e1b:	e9 40 fe ff ff       	jmpq   400c60 <.plt>

0000000000400e20 <gethostname@plt>:
  400e20:	ff 25 ca 32 20 00    	jmpq   *0x2032ca(%rip)        # 6040f0 <gethostname@GLIBC_2.2.5>
  400e26:	68 1b 00 00 00       	pushq  $0x1b
  400e2b:	e9 30 fe ff ff       	jmpq   400c60 <.plt>

0000000000400e30 <exit@plt>:
  400e30:	ff 25 c2 32 20 00    	jmpq   *0x2032c2(%rip)        # 6040f8 <exit@GLIBC_2.2.5>
  400e36:	68 1c 00 00 00       	pushq  $0x1c
  400e3b:	e9 20 fe ff ff       	jmpq   400c60 <.plt>

0000000000400e40 <connect@plt>:
  400e40:	ff 25 ba 32 20 00    	jmpq   *0x2032ba(%rip)        # 604100 <connect@GLIBC_2.2.5>
  400e46:	68 1d 00 00 00       	pushq  $0x1d
  400e4b:	e9 10 fe ff ff       	jmpq   400c60 <.plt>

0000000000400e50 <__fprintf_chk@plt>:
  400e50:	ff 25 b2 32 20 00    	jmpq   *0x2032b2(%rip)        # 604108 <__fprintf_chk@GLIBC_2.3.4>
  400e56:	68 1e 00 00 00       	pushq  $0x1e
  400e5b:	e9 00 fe ff ff       	jmpq   400c60 <.plt>

0000000000400e60 <__sprintf_chk@plt>:
  400e60:	ff 25 aa 32 20 00    	jmpq   *0x2032aa(%rip)        # 604110 <__sprintf_chk@GLIBC_2.3.4>
  400e66:	68 1f 00 00 00       	pushq  $0x1f
  400e6b:	e9 f0 fd ff ff       	jmpq   400c60 <.plt>

0000000000400e70 <socket@plt>:
  400e70:	ff 25 a2 32 20 00    	jmpq   *0x2032a2(%rip)        # 604118 <socket@GLIBC_2.2.5>
  400e76:	68 20 00 00 00       	pushq  $0x20
  400e7b:	e9 e0 fd ff ff       	jmpq   400c60 <.plt>

Disassembly of section .text:

0000000000400e80 <_start>:
  400e80:	31 ed                	xor    %ebp,%ebp
  400e82:	49 89 d1             	mov    %rdx,%r9
  400e85:	5e                   	pop    %rsi
  400e86:	48 89 e2             	mov    %rsp,%rdx
  400e89:	48 83 e4 f0          	and    $0xfffffffffffffff0,%rsp
  400e8d:	50                   	push   %rax
  400e8e:	54                   	push   %rsp
  400e8f:	49 c7 c0 70 2e 40 00 	mov    $0x402e70,%r8
  400e96:	48 c7 c1 00 2e 40 00 	mov    $0x402e00,%rcx
  400e9d:	48 c7 c7 73 11 40 00 	mov    $0x401173,%rdi
  400ea4:	ff 15 46 31 20 00    	callq  *0x203146(%rip)        # 603ff0 <__libc_start_main@GLIBC_2.2.5>
  400eaa:	f4                   	hlt    
  400eab:	0f 1f 44 00 00       	nopl   0x0(%rax,%rax,1)

0000000000400eb0 <_dl_relocate_static_pie>:
  400eb0:	f3 c3                	repz retq 
  400eb2:	66 2e 0f 1f 84 00 00 	nopw   %cs:0x0(%rax,%rax,1)
  400eb9:	00 00 00 
  400ebc:	0f 1f 40 00          	nopl   0x0(%rax)

0000000000400ec0 <deregister_tm_clones>:
  400ec0:	55                   	push   %rbp
  400ec1:	b8 90 44 60 00       	mov    $0x604490,%eax
  400ec6:	48 3d 90 44 60 00    	cmp    $0x604490,%rax
  400ecc:	48 89 e5             	mov    %rsp,%rbp
  400ecf:	74 17                	je     400ee8 <deregister_tm_clones+0x28>
  400ed1:	b8 00 00 00 00       	mov    $0x0,%eax
  400ed6:	48 85 c0             	test   %rax,%rax
  400ed9:	74 0d                	je     400ee8 <deregister_tm_clones+0x28>
  400edb:	5d                   	pop    %rbp
  400edc:	bf 90 44 60 00       	mov    $0x604490,%edi
  400ee1:	ff e0                	jmpq   *%rax
  400ee3:	0f 1f 44 00 00       	nopl   0x0(%rax,%rax,1)
  400ee8:	5d                   	pop    %rbp
  400ee9:	c3                   	retq   
  400eea:	66 0f 1f 44 00 00    	nopw   0x0(%rax,%rax,1)

0000000000400ef0 <register_tm_clones>:
  400ef0:	be 90 44 60 00       	mov    $0x604490,%esi
  400ef5:	55                   	push   %rbp
  400ef6:	48 81 ee 90 44 60 00 	sub    $0x604490,%rsi
  400efd:	48 89 e5             	mov    %rsp,%rbp
  400f00:	48 c1 fe 03          	sar    $0x3,%rsi
  400f04:	48 89 f0             	mov    %rsi,%rax
  400f07:	48 c1 e8 3f          	shr    $0x3f,%rax
  400f0b:	48 01 c6             	add    %rax,%rsi
  400f0e:	48 d1 fe             	sar    %rsi
  400f11:	74 15                	je     400f28 <register_tm_clones+0x38>
  400f13:	b8 00 00 00 00       	mov    $0x0,%eax
  400f18:	48 85 c0             	test   %rax,%rax
  400f1b:	74 0b                	je     400f28 <register_tm_clones+0x38>
  400f1d:	5d                   	pop    %rbp
  400f1e:	bf 90 44 60 00       	mov    $0x604490,%edi
  400f23:	ff e0                	jmpq   *%rax
  400f25:	0f 1f 00             	nopl   (%rax)
  400f28:	5d                   	pop    %rbp
  400f29:	c3                   	retq   
  400f2a:	66 0f 1f 44 00 00    	nopw   0x0(%rax,%rax,1)

0000000000400f30 <__do_global_dtors_aux>:
  400f30:	80 3d 91 35 20 00 00 	cmpb   $0x0,0x203591(%rip)        # 6044c8 <completed.7698>
  400f37:	75 17                	jne    400f50 <__do_global_dtors_aux+0x20>
  400f39:	55                   	push   %rbp
  400f3a:	48 89 e5             	mov    %rsp,%rbp
  400f3d:	e8 7e ff ff ff       	callq  400ec0 <deregister_tm_clones>
  400f42:	c6 05 7f 35 20 00 01 	movb   $0x1,0x20357f(%rip)        # 6044c8 <completed.7698>
  400f49:	5d                   	pop    %rbp
  400f4a:	c3                   	retq   
  400f4b:	0f 1f 44 00 00       	nopl   0x0(%rax,%rax,1)
  400f50:	f3 c3                	repz retq 
  400f52:	0f 1f 40 00          	nopl   0x0(%rax)
  400f56:	66 2e 0f 1f 84 00 00 	nopw   %cs:0x0(%rax,%rax,1)
  400f5d:	00 00 00 

0000000000400f60 <frame_dummy>:
  400f60:	55                   	push   %rbp
  400f61:	48 89 e5             	mov    %rsp,%rbp
  400f64:	5d                   	pop    %rbp
  400f65:	eb 89                	jmp    400ef0 <register_tm_clones>

0000000000400f67 <usage>:
  400f67:	48 83 ec 08          	sub    $0x8,%rsp
  400f6b:	48 89 fa             	mov    %rdi,%rdx
  400f6e:	83 3d 93 35 20 00 00 	cmpl   $0x0,0x203593(%rip)        # 604508 <is_checker>
  400f75:	74 46                	je     400fbd <usage+0x56>
  400f77:	be 88 2e 40 00       	mov    $0x402e88,%esi
  400f7c:	bf 01 00 00 00       	mov    $0x1,%edi
  400f81:	b8 00 00 00 00       	mov    $0x0,%eax
  400f86:	e8 55 fe ff ff       	callq  400de0 <__printf_chk@plt>
  400f8b:	bf c0 2e 40 00       	mov    $0x402ec0,%edi
  400f90:	e8 2b fd ff ff       	callq  400cc0 <puts@plt>
  400f95:	bf 38 30 40 00       	mov    $0x403038,%edi
  400f9a:	e8 21 fd ff ff       	callq  400cc0 <puts@plt>
  400f9f:	bf e8 2e 40 00       	mov    $0x402ee8,%edi
  400fa4:	e8 17 fd ff ff       	callq  400cc0 <puts@plt>
  400fa9:	bf 52 30 40 00       	mov    $0x403052,%edi
  400fae:	e8 0d fd ff ff       	callq  400cc0 <puts@plt>
  400fb3:	bf 00 00 00 00       	mov    $0x0,%edi
  400fb8:	e8 73 fe ff ff       	callq  400e30 <exit@plt>
  400fbd:	be 6e 30 40 00       	mov    $0x40306e,%esi
  400fc2:	bf 01 00 00 00       	mov    $0x1,%edi
  400fc7:	b8 00 00 00 00       	mov    $0x0,%eax
  400fcc:	e8 0f fe ff ff       	callq  400de0 <__printf_chk@plt>
  400fd1:	bf 10 2f 40 00       	mov    $0x402f10,%edi
  400fd6:	e8 e5 fc ff ff       	callq  400cc0 <puts@plt>
  400fdb:	bf 38 2f 40 00       	mov    $0x402f38,%edi
  400fe0:	e8 db fc ff ff       	callq  400cc0 <puts@plt>
  400fe5:	bf 8c 30 40 00       	mov    $0x40308c,%edi
  400fea:	e8 d1 fc ff ff       	callq  400cc0 <puts@plt>
  400fef:	eb c2                	jmp    400fb3 <usage+0x4c>

0000000000400ff1 <initialize_target>:
  400ff1:	55                   	push   %rbp
  400ff2:	53                   	push   %rbx
  400ff3:	48 81 ec 18 21 00 00 	sub    $0x2118,%rsp
  400ffa:	89 f5                	mov    %esi,%ebp
  400ffc:	64 48 8b 04 25 28 00 	mov    %fs:0x28,%rax
  401003:	00 00 
  401005:	48 89 84 24 08 21 00 	mov    %rax,0x2108(%rsp)
  40100c:	00 
  40100d:	31 c0                	xor    %eax,%eax
  40100f:	89 3d e3 34 20 00    	mov    %edi,0x2034e3(%rip)        # 6044f8 <check_level>
  401015:	8b 3d 2d 31 20 00    	mov    0x20312d(%rip),%edi        # 604148 <target_id>
  40101b:	e8 b8 1d 00 00       	callq  402dd8 <gencookie>
  401020:	89 05 de 34 20 00    	mov    %eax,0x2034de(%rip)        # 604504 <cookie>
  401026:	89 c7                	mov    %eax,%edi
  401028:	e8 ab 1d 00 00       	callq  402dd8 <gencookie>
  40102d:	89 05 cd 34 20 00    	mov    %eax,0x2034cd(%rip)        # 604500 <authkey>
  401033:	8b 05 0f 31 20 00    	mov    0x20310f(%rip),%eax        # 604148 <target_id>
  401039:	8d 78 01             	lea    0x1(%rax),%edi
  40103c:	e8 4f fc ff ff       	callq  400c90 <srandom@plt>
  401041:	e8 5a fd ff ff       	callq  400da0 <random@plt>
  401046:	89 c7                	mov    %eax,%edi
  401048:	e8 f2 02 00 00       	callq  40133f <scramble>
  40104d:	89 c3                	mov    %eax,%ebx
  40104f:	85 ed                	test   %ebp,%ebp
  401051:	75 54                	jne    4010a7 <initialize_target+0xb6>
  401053:	b8 00 00 00 00       	mov    $0x0,%eax
  401058:	01 d8                	add    %ebx,%eax
  40105a:	0f b7 c0             	movzwl %ax,%eax
  40105d:	8d 04 c5 00 01 00 00 	lea    0x100(,%rax,8),%eax
  401064:	89 c0                	mov    %eax,%eax
  401066:	48 89 05 13 34 20 00 	mov    %rax,0x203413(%rip)        # 604480 <buf_offset>
  40106d:	c6 05 b4 40 20 00 63 	movb   $0x63,0x2040b4(%rip)        # 605128 <target_prefix>
  401074:	83 3d 0d 34 20 00 00 	cmpl   $0x0,0x20340d(%rip)        # 604488 <notify>
  40107b:	74 09                	je     401086 <initialize_target+0x95>
  40107d:	83 3d 84 34 20 00 00 	cmpl   $0x0,0x203484(%rip)        # 604508 <is_checker>
  401084:	74 39                	je     4010bf <initialize_target+0xce>
  401086:	48 8b 84 24 08 21 00 	mov    0x2108(%rsp),%rax
  40108d:	00 
  40108e:	64 48 33 04 25 28 00 	xor    %fs:0x28,%rax
  401095:	00 00 
  401097:	0f 85 d1 00 00 00    	jne    40116e <initialize_target+0x17d>
  40109d:	48 81 c4 18 21 00 00 	add    $0x2118,%rsp
  4010a4:	5b                   	pop    %rbx
  4010a5:	5d                   	pop    %rbp
  4010a6:	c3                   	retq   
  4010a7:	bf 00 00 00 00       	mov    $0x0,%edi
  4010ac:	e8 df fc ff ff       	callq  400d90 <time@plt>
  4010b1:	89 c7                	mov    %eax,%edi
  4010b3:	e8 d8 fb ff ff       	callq  400c90 <srandom@plt>
  4010b8:	e8 e3 fc ff ff       	callq  400da0 <random@plt>
  4010bd:	eb 99                	jmp    401058 <initialize_target+0x67>
  4010bf:	be 00 01 00 00       	mov    $0x100,%esi
  4010c4:	48 89 e7             	mov    %rsp,%rdi
  4010c7:	e8 54 fd ff ff       	callq  400e20 <gethostname@plt>
  4010cc:	89 c5                	mov    %eax,%ebp
  4010ce:	85 c0                	test   %eax,%eax
  4010d0:	75 23                	jne    4010f5 <initialize_target+0x104>
  4010d2:	89 c3                	mov    %eax,%ebx
  4010d4:	48 63 c3             	movslq %ebx,%rax
  4010d7:	48 8b 3c c5 60 41 60 	mov    0x604160(,%rax,8),%rdi
  4010de:	00 
  4010df:	48 85 ff             	test   %rdi,%rdi
  4010e2:	74 2a                	je     40110e <initialize_target+0x11d>
  4010e4:	48 89 e6             	mov    %rsp,%rsi
  4010e7:	e8 84 fb ff ff       	callq  400c70 <strcasecmp@plt>
  4010ec:	85 c0                	test   %eax,%eax
  4010ee:	74 19                	je     401109 <initialize_target+0x118>
  4010f0:	83 c3 01             	add    $0x1,%ebx
  4010f3:	eb df                	jmp    4010d4 <initialize_target+0xe3>
  4010f5:	bf 68 2f 40 00       	mov    $0x402f68,%edi
  4010fa:	e8 c1 fb ff ff       	callq  400cc0 <puts@plt>
  4010ff:	bf 08 00 00 00       	mov    $0x8,%edi
  401104:	e8 27 fd ff ff       	callq  400e30 <exit@plt>
  401109:	bd 01 00 00 00       	mov    $0x1,%ebp
  40110e:	85 ed                	test   %ebp,%ebp
  401110:	74 3b                	je     40114d <initialize_target+0x15c>
  401112:	48 8d bc 24 00 01 00 	lea    0x100(%rsp),%rdi
  401119:	00 
  40111a:	e8 0e 1a 00 00       	callq  402b2d <init_driver>
  40111f:	85 c0                	test   %eax,%eax
  401121:	0f 89 5f ff ff ff    	jns    401086 <initialize_target+0x95>
  401127:	48 8d 94 24 00 01 00 	lea    0x100(%rsp),%rdx
  40112e:	00 
  40112f:	be e0 2f 40 00       	mov    $0x402fe0,%esi
  401134:	bf 01 00 00 00       	mov    $0x1,%edi
  401139:	b8 00 00 00 00       	mov    $0x0,%eax
  40113e:	e8 9d fc ff ff       	callq  400de0 <__printf_chk@plt>
  401143:	bf 08 00 00 00       	mov    $0x8,%edi
  401148:	e8 e3 fc ff ff       	callq  400e30 <exit@plt>
  40114d:	48 89 e2             	mov    %rsp,%rdx
  401150:	be a0 2f 40 00       	mov    $0x402fa0,%esi
  401155:	bf 01 00 00 00       	mov    $0x1,%edi
  40115a:	b8 00 00 00 00       	mov    $0x0,%eax
  40115f:	e8 7c fc ff ff       	callq  400de0 <__printf_chk@plt>
  401164:	bf 08 00 00 00       	mov    $0x8,%edi
  401169:	e8 c2 fc ff ff       	callq  400e30 <exit@plt>
  40116e:	e8 6d fb ff ff       	callq  400ce0 <__stack_chk_fail@plt>

0000000000401173 <main>:
  401173:	41 56                	push   %r14
  401175:	41 55                	push   %r13
  401177:	41 54                	push   %r12
  401179:	55                   	push   %rbp
  40117a:	53                   	push   %rbx
  40117b:	41 89 fc             	mov    %edi,%r12d
  40117e:	48 89 f3             	mov    %rsi,%rbx
  401181:	be 6a 1e 40 00       	mov    $0x401e6a,%esi
  401186:	bf 0b 00 00 00       	mov    $0xb,%edi
  40118b:	e8 b0 fb ff ff       	callq  400d40 <signal@plt>
  401190:	be 1c 1e 40 00       	mov    $0x401e1c,%esi
  401195:	bf 07 00 00 00       	mov    $0x7,%edi
  40119a:	e8 a1 fb ff ff       	callq  400d40 <signal@plt>
  40119f:	be b8 1e 40 00       	mov    $0x401eb8,%esi
  4011a4:	bf 04 00 00 00       	mov    $0x4,%edi
  4011a9:	e8 92 fb ff ff       	callq  400d40 <signal@plt>
  4011ae:	83 3d 53 33 20 00 00 	cmpl   $0x0,0x203353(%rip)        # 604508 <is_checker>
  4011b5:	75 24                	jne    4011db <main+0x68>
  4011b7:	bd a5 30 40 00       	mov    $0x4030a5,%ebp
  4011bc:	48 8b 05 dd 32 20 00 	mov    0x2032dd(%rip),%rax        # 6044a0 <stdin@@GLIBC_2.2.5>
  4011c3:	48 89 05 26 33 20 00 	mov    %rax,0x203326(%rip)        # 6044f0 <infile>
  4011ca:	41 bd 00 00 00 00    	mov    $0x0,%r13d
  4011d0:	41 be 00 00 00 00    	mov    $0x0,%r14d
  4011d6:	e9 85 00 00 00       	jmpq   401260 <main+0xed>
  4011db:	be 06 1f 40 00       	mov    $0x401f06,%esi
  4011e0:	bf 0e 00 00 00       	mov    $0xe,%edi
  4011e5:	e8 56 fb ff ff       	callq  400d40 <signal@plt>
  4011ea:	bf 05 00 00 00       	mov    $0x5,%edi
  4011ef:	e8 1c fb ff ff       	callq  400d10 <alarm@plt>
  4011f4:	bd aa 30 40 00       	mov    $0x4030aa,%ebp
  4011f9:	eb c1                	jmp    4011bc <main+0x49>
  4011fb:	48 8b 3b             	mov    (%rbx),%rdi
  4011fe:	e8 64 fd ff ff       	callq  400f67 <usage>
  401203:	be 75 33 40 00       	mov    $0x403375,%esi
  401208:	48 8b 3d 99 32 20 00 	mov    0x203299(%rip),%rdi        # 6044a8 <optarg@@GLIBC_2.2.5>
  40120f:	e8 dc fb ff ff       	callq  400df0 <fopen@plt>
  401214:	48 89 05 d5 32 20 00 	mov    %rax,0x2032d5(%rip)        # 6044f0 <infile>
  40121b:	48 85 c0             	test   %rax,%rax
  40121e:	75 40                	jne    401260 <main+0xed>
  401220:	48 8b 0d 81 32 20 00 	mov    0x203281(%rip),%rcx        # 6044a8 <optarg@@GLIBC_2.2.5>
  401227:	ba b2 30 40 00       	mov    $0x4030b2,%edx
  40122c:	be 01 00 00 00       	mov    $0x1,%esi
  401231:	48 8b 3d 88 32 20 00 	mov    0x203288(%rip),%rdi        # 6044c0 <stderr@@GLIBC_2.2.5>
  401238:	e8 13 fc ff ff       	callq  400e50 <__fprintf_chk@plt>
  40123d:	b8 01 00 00 00       	mov    $0x1,%eax
  401242:	e9 cc 00 00 00       	jmpq   401313 <main+0x1a0>
  401247:	ba 10 00 00 00       	mov    $0x10,%edx
  40124c:	be 00 00 00 00       	mov    $0x0,%esi
  401251:	48 8b 3d 50 32 20 00 	mov    0x203250(%rip),%rdi        # 6044a8 <optarg@@GLIBC_2.2.5>
  401258:	e8 b3 fb ff ff       	callq  400e10 <strtoul@plt>
  40125d:	41 89 c6             	mov    %eax,%r14d
  401260:	48 89 ea             	mov    %rbp,%rdx
  401263:	48 89 de             	mov    %rbx,%rsi
  401266:	44 89 e7             	mov    %r12d,%edi
  401269:	e8 92 fb ff ff       	callq  400e00 <getopt@plt>
  40126e:	3c ff                	cmp    $0xff,%al
  401270:	74 57                	je     4012c9 <main+0x156>
  401272:	0f be d0             	movsbl %al,%edx
  401275:	83 e8 61             	sub    $0x61,%eax
  401278:	3c 10                	cmp    $0x10,%al
  40127a:	77 31                	ja     4012ad <main+0x13a>
  40127c:	0f b6 c0             	movzbl %al,%eax
  40127f:	ff 24 c5 f0 30 40 00 	jmpq   *0x4030f0(,%rax,8)
  401286:	ba 0a 00 00 00       	mov    $0xa,%edx
  40128b:	be 00 00 00 00       	mov    $0x0,%esi
  401290:	48 8b 3d 11 32 20 00 	mov    0x203211(%rip),%rdi        # 6044a8 <optarg@@GLIBC_2.2.5>
  401297:	e8 d4 fa ff ff       	callq  400d70 <strtol@plt>
  40129c:	41 89 c5             	mov    %eax,%r13d
  40129f:	eb bf                	jmp    401260 <main+0xed>
  4012a1:	c7 05 dd 31 20 00 00 	movl   $0x0,0x2031dd(%rip)        # 604488 <notify>
  4012a8:	00 00 00 
  4012ab:	eb b3                	jmp    401260 <main+0xed>
  4012ad:	be cf 30 40 00       	mov    $0x4030cf,%esi
  4012b2:	bf 01 00 00 00       	mov    $0x1,%edi
  4012b7:	b8 00 00 00 00       	mov    $0x0,%eax
  4012bc:	e8 1f fb ff ff       	callq  400de0 <__printf_chk@plt>
  4012c1:	48 8b 3b             	mov    (%rbx),%rdi
  4012c4:	e8 9e fc ff ff       	callq  400f67 <usage>
  4012c9:	be 00 00 00 00       	mov    $0x0,%esi
  4012ce:	44 89 ef             	mov    %r13d,%edi
  4012d1:	e8 1b fd ff ff       	callq  400ff1 <initialize_target>
  4012d6:	83 3d 2b 32 20 00 00 	cmpl   $0x0,0x20322b(%rip)        # 604508 <is_checker>
  4012dd:	74 09                	je     4012e8 <main+0x175>
  4012df:	44 39 35 1a 32 20 00 	cmp    %r14d,0x20321a(%rip)        # 604500 <authkey>
  4012e6:	75 34                	jne    40131c <main+0x1a9>
  4012e8:	8b 15 16 32 20 00    	mov    0x203216(%rip),%edx        # 604504 <cookie>
  4012ee:	be e2 30 40 00       	mov    $0x4030e2,%esi
  4012f3:	bf 01 00 00 00       	mov    $0x1,%edi
  4012f8:	b8 00 00 00 00       	mov    $0x0,%eax
  4012fd:	e8 de fa ff ff       	callq  400de0 <__printf_chk@plt>
  401302:	48 8b 3d 77 31 20 00 	mov    0x203177(%rip),%rdi        # 604480 <buf_offset>
  401309:	e8 fa 0c 00 00       	callq  402008 <stable_launch>
  40130e:	b8 00 00 00 00       	mov    $0x0,%eax
  401313:	5b                   	pop    %rbx
  401314:	5d                   	pop    %rbp
  401315:	41 5c                	pop    %r12
  401317:	41 5d                	pop    %r13
  401319:	41 5e                	pop    %r14
  40131b:	c3                   	retq   
  40131c:	44 89 f2             	mov    %r14d,%edx
  40131f:	be 08 30 40 00       	mov    $0x403008,%esi
  401324:	bf 01 00 00 00       	mov    $0x1,%edi
  401329:	b8 00 00 00 00       	mov    $0x0,%eax
  40132e:	e8 ad fa ff ff       	callq  400de0 <__printf_chk@plt>
  401333:	b8 00 00 00 00       	mov    $0x0,%eax
  401338:	e8 68 07 00 00       	callq  401aa5 <check_fail>
  40133d:	eb a9                	jmp    4012e8 <main+0x175>

000000000040133f <scramble>:
  40133f:	48 83 ec 38          	sub    $0x38,%rsp
  401343:	64 48 8b 04 25 28 00 	mov    %fs:0x28,%rax
  40134a:	00 00 
  40134c:	48 89 44 24 28       	mov    %rax,0x28(%rsp)
  401351:	31 c0                	xor    %eax,%eax
  401353:	eb 10                	jmp    401365 <scramble+0x26>
  401355:	69 d0 28 47 00 00    	imul   $0x4728,%eax,%edx
  40135b:	01 fa                	add    %edi,%edx
  40135d:	89 c1                	mov    %eax,%ecx
  40135f:	89 14 8c             	mov    %edx,(%rsp,%rcx,4)
  401362:	83 c0 01             	add    $0x1,%eax
  401365:	83 f8 09             	cmp    $0x9,%eax
  401368:	76 eb                	jbe    401355 <scramble+0x16>
  40136a:	8b 44 24 14          	mov    0x14(%rsp),%eax
  40136e:	69 c0 fa 96 00 00    	imul   $0x96fa,%eax,%eax
  401374:	89 44 24 14          	mov    %eax,0x14(%rsp)
  401378:	8b 44 24 04          	mov    0x4(%rsp),%eax
  40137c:	69 c0 c1 46 00 00    	imul   $0x46c1,%eax,%eax
  401382:	89 44 24 04          	mov    %eax,0x4(%rsp)
  401386:	8b 44 24 04          	mov    0x4(%rsp),%eax
  40138a:	69 c0 78 99 00 00    	imul   $0x9978,%eax,%eax
  401390:	89 44 24 04          	mov    %eax,0x4(%rsp)
  401394:	8b 04 24             	mov    (%rsp),%eax
  401397:	69 c0 5c 20 00 00    	imul   $0x205c,%eax,%eax
  40139d:	89 04 24             	mov    %eax,(%rsp)
  4013a0:	8b 44 24 14          	mov    0x14(%rsp),%eax
  4013a4:	69 c0 20 39 00 00    	imul   $0x3920,%eax,%eax
  4013aa:	89 44 24 14          	mov    %eax,0x14(%rsp)
  4013ae:	8b 44 24 24          	mov    0x24(%rsp),%eax
  4013b2:	69 c0 f6 8a 00 00    	imul   $0x8af6,%eax,%eax
  4013b8:	89 44 24 24          	mov    %eax,0x24(%rsp)
  4013bc:	8b 44 24 10          	mov    0x10(%rsp),%eax
  4013c0:	69 c0 df b2 00 00    	imul   $0xb2df,%eax,%eax
  4013c6:	89 44 24 10          	mov    %eax,0x10(%rsp)
  4013ca:	8b 44 24 24          	mov    0x24(%rsp),%eax
  4013ce:	69 c0 cb 4f 00 00    	imul   $0x4fcb,%eax,%eax
  4013d4:	89 44 24 24          	mov    %eax,0x24(%rsp)
  4013d8:	8b 44 24 1c          	mov    0x1c(%rsp),%eax
  4013dc:	69 c0 b1 1a 00 00    	imul   $0x1ab1,%eax,%eax
  4013e2:	89 44 24 1c          	mov    %eax,0x1c(%rsp)
  4013e6:	8b 44 24 08          	mov    0x8(%rsp),%eax
  4013ea:	69 c0 a3 68 00 00    	imul   $0x68a3,%eax,%eax
  4013f0:	89 44 24 08          	mov    %eax,0x8(%rsp)
  4013f4:	8b 44 24 24          	mov    0x24(%rsp),%eax
  4013f8:	69 c0 8d 9c 00 00    	imul   $0x9c8d,%eax,%eax
  4013fe:	89 44 24 24          	mov    %eax,0x24(%rsp)
  401402:	8b 44 24 10          	mov    0x10(%rsp),%eax
  401406:	69 c0 17 8d 00 00    	imul   $0x8d17,%eax,%eax
  40140c:	89 44 24 10          	mov    %eax,0x10(%rsp)
  401410:	8b 44 24 04          	mov    0x4(%rsp),%eax
  401414:	69 c0 fd 92 00 00    	imul   $0x92fd,%eax,%eax
  40141a:	89 44 24 04          	mov    %eax,0x4(%rsp)
  40141e:	8b 44 24 08          	mov    0x8(%rsp),%eax
  401422:	69 c0 66 59 00 00    	imul   $0x5966,%eax,%eax
  401428:	89 44 24 08          	mov    %eax,0x8(%rsp)
  40142c:	8b 44 24 10          	mov    0x10(%rsp),%eax
  401430:	69 c0 39 21 00 00    	imul   $0x2139,%eax,%eax
  401436:	89 44 24 10          	mov    %eax,0x10(%rsp)
  40143a:	8b 44 24 04          	mov    0x4(%rsp),%eax
  40143e:	69 c0 d5 48 00 00    	imul   $0x48d5,%eax,%eax
  401444:	89 44 24 04          	mov    %eax,0x4(%rsp)
  401448:	8b 44 24 20          	mov    0x20(%rsp),%eax
  40144c:	69 c0 a3 82 00 00    	imul   $0x82a3,%eax,%eax
  401452:	89 44 24 20          	mov    %eax,0x20(%rsp)
  401456:	8b 04 24             	mov    (%rsp),%eax
  401459:	69 c0 ce 4e 00 00    	imul   $0x4ece,%eax,%eax
  40145f:	89 04 24             	mov    %eax,(%rsp)
  401462:	8b 44 24 08          	mov    0x8(%rsp),%eax
  401466:	69 c0 39 61 00 00    	imul   $0x6139,%eax,%eax
  40146c:	89 44 24 08          	mov    %eax,0x8(%rsp)
  401470:	8b 44 24 18          	mov    0x18(%rsp),%eax
  401474:	69 c0 b4 64 00 00    	imul   $0x64b4,%eax,%eax
  40147a:	89 44 24 18          	mov    %eax,0x18(%rsp)
  40147e:	8b 44 24 1c          	mov    0x1c(%rsp),%eax
  401482:	69 c0 ad 6f 00 00    	imul   $0x6fad,%eax,%eax
  401488:	89 44 24 1c          	mov    %eax,0x1c(%rsp)
  40148c:	8b 44 24 18          	mov    0x18(%rsp),%eax
  401490:	69 c0 11 a3 00 00    	imul   $0xa311,%eax,%eax
  401496:	89 44 24 18          	mov    %eax,0x18(%rsp)
  40149a:	8b 44 24 18          	mov    0x18(%rsp),%eax
  40149e:	69 c0 6d 8c 00 00    	imul   $0x8c6d,%eax,%eax
  4014a4:	89 44 24 18          	mov    %eax,0x18(%rsp)
  4014a8:	8b 44 24 10          	mov    0x10(%rsp),%eax
  4014ac:	69 c0 99 dd 00 00    	imul   $0xdd99,%eax,%eax
  4014b2:	89 44 24 10          	mov    %eax,0x10(%rsp)
  4014b6:	8b 44 24 24          	mov    0x24(%rsp),%eax
  4014ba:	69 c0 5e bc 00 00    	imul   $0xbc5e,%eax,%eax
  4014c0:	89 44 24 24          	mov    %eax,0x24(%rsp)
  4014c4:	8b 44 24 14          	mov    0x14(%rsp),%eax
  4014c8:	69 c0 ee 83 00 00    	imul   $0x83ee,%eax,%eax
  4014ce:	89 44 24 14          	mov    %eax,0x14(%rsp)
  4014d2:	8b 44 24 14          	mov    0x14(%rsp),%eax
  4014d6:	69 c0 74 14 00 00    	imul   $0x1474,%eax,%eax
  4014dc:	89 44 24 14          	mov    %eax,0x14(%rsp)
  4014e0:	8b 44 24 24          	mov    0x24(%rsp),%eax
  4014e4:	69 c0 6e 1c 00 00    	imul   $0x1c6e,%eax,%eax
  4014ea:	89 44 24 24          	mov    %eax,0x24(%rsp)
  4014ee:	8b 44 24 20          	mov    0x20(%rsp),%eax
  4014f2:	69 c0 8c a3 00 00    	imul   $0xa38c,%eax,%eax
  4014f8:	89 44 24 20          	mov    %eax,0x20(%rsp)
  4014fc:	8b 44 24 0c          	mov    0xc(%rsp),%eax
  401500:	69 c0 1e a9 00 00    	imul   $0xa91e,%eax,%eax
  401506:	89 44 24 0c          	mov    %eax,0xc(%rsp)
  40150a:	8b 44 24 0c          	mov    0xc(%rsp),%eax
  40150e:	69 c0 6c ea 00 00    	imul   $0xea6c,%eax,%eax
  401514:	89 44 24 0c          	mov    %eax,0xc(%rsp)
  401518:	8b 44 24 14          	mov    0x14(%rsp),%eax
  40151c:	69 c0 f8 7c 00 00    	imul   $0x7cf8,%eax,%eax
  401522:	89 44 24 14          	mov    %eax,0x14(%rsp)
  401526:	8b 04 24             	mov    (%rsp),%eax
  401529:	69 c0 89 81 00 00    	imul   $0x8189,%eax,%eax
  40152f:	89 04 24             	mov    %eax,(%rsp)
  401532:	8b 44 24 10          	mov    0x10(%rsp),%eax
  401536:	69 c0 2b 89 00 00    	imul   $0x892b,%eax,%eax
  40153c:	89 44 24 10          	mov    %eax,0x10(%rsp)
  401540:	8b 04 24             	mov    (%rsp),%eax
  401543:	69 c0 f0 3a 00 00    	imul   $0x3af0,%eax,%eax
  401549:	89 04 24             	mov    %eax,(%rsp)
  40154c:	8b 44 24 0c          	mov    0xc(%rsp),%eax
  401550:	69 c0 1c 7d 00 00    	imul   $0x7d1c,%eax,%eax
  401556:	89 44 24 0c          	mov    %eax,0xc(%rsp)
  40155a:	8b 44 24 1c          	mov    0x1c(%rsp),%eax
  40155e:	69 c0 8b dd 00 00    	imul   $0xdd8b,%eax,%eax
  401564:	89 44 24 1c          	mov    %eax,0x1c(%rsp)
  401568:	8b 44 24 08          	mov    0x8(%rsp),%eax
  40156c:	69 c0 29 cd 00 00    	imul   $0xcd29,%eax,%eax
  401572:	89 44 24 08          	mov    %eax,0x8(%rsp)
  401576:	8b 44 24 1c          	mov    0x1c(%rsp),%eax
  40157a:	69 c0 0a 13 00 00    	imul   $0x130a,%eax,%eax
  401580:	89 44 24 1c          	mov    %eax,0x1c(%rsp)
  401584:	8b 44 24 08          	mov    0x8(%rsp),%eax
  401588:	69 c0 16 11 00 00    	imul   $0x1116,%eax,%eax
  40158e:	89 44 24 08          	mov    %eax,0x8(%rsp)
  401592:	8b 44 24 0c          	mov    0xc(%rsp),%eax
  401596:	69 c0 00 f1 00 00    	imul   $0xf100,%eax,%eax
  40159c:	89 44 24 0c          	mov    %eax,0xc(%rsp)
  4015a0:	8b 44 24 20          	mov    0x20(%rsp),%eax
  4015a4:	69 c0 53 28 00 00    	imul   $0x2853,%eax,%eax
  4015aa:	89 44 24 20          	mov    %eax,0x20(%rsp)
  4015ae:	8b 44 24 04          	mov    0x4(%rsp),%eax
  4015b2:	69 c0 0a a6 00 00    	imul   $0xa60a,%eax,%eax
  4015b8:	89 44 24 04          	mov    %eax,0x4(%rsp)
  4015bc:	8b 44 24 24          	mov    0x24(%rsp),%eax
  4015c0:	69 c0 e5 ac 00 00    	imul   $0xace5,%eax,%eax
  4015c6:	89 44 24 24          	mov    %eax,0x24(%rsp)
  4015ca:	8b 44 24 04          	mov    0x4(%rsp),%eax
  4015ce:	69 c0 95 ba 00 00    	imul   $0xba95,%eax,%eax
  4015d4:	89 44 24 04          	mov    %eax,0x4(%rsp)
  4015d8:	8b 44 24 14          	mov    0x14(%rsp),%eax
  4015dc:	69 c0 5c 0e 00 00    	imul   $0xe5c,%eax,%eax
  4015e2:	89 44 24 14          	mov    %eax,0x14(%rsp)
  4015e6:	8b 44 24 1c          	mov    0x1c(%rsp),%eax
  4015ea:	69 c0 f6 47 00 00    	imul   $0x47f6,%eax,%eax
  4015f0:	89 44 24 1c          	mov    %eax,0x1c(%rsp)
  4015f4:	8b 44 24 24          	mov    0x24(%rsp),%eax
  4015f8:	69 c0 11 12 00 00    	imul   $0x1211,%eax,%eax
  4015fe:	89 44 24 24          	mov    %eax,0x24(%rsp)
  401602:	8b 44 24 20          	mov    0x20(%rsp),%eax
  401606:	69 c0 1b 57 00 00    	imul   $0x571b,%eax,%eax
  40160c:	89 44 24 20          	mov    %eax,0x20(%rsp)
  401610:	8b 44 24 10          	mov    0x10(%rsp),%eax
  401614:	69 c0 42 ac 00 00    	imul   $0xac42,%eax,%eax
  40161a:	89 44 24 10          	mov    %eax,0x10(%rsp)
  40161e:	8b 44 24 18          	mov    0x18(%rsp),%eax
  401622:	69 c0 1c 89 00 00    	imul   $0x891c,%eax,%eax
  401628:	89 44 24 18          	mov    %eax,0x18(%rsp)
  40162c:	8b 44 24 1c          	mov    0x1c(%rsp),%eax
  401630:	69 c0 a9 3c 00 00    	imul   $0x3ca9,%eax,%eax
  401636:	89 44 24 1c          	mov    %eax,0x1c(%rsp)
  40163a:	8b 44 24 04          	mov    0x4(%rsp),%eax
  40163e:	69 c0 8c 49 00 00    	imul   $0x498c,%eax,%eax
  401644:	89 44 24 04          	mov    %eax,0x4(%rsp)
  401648:	8b 44 24 08          	mov    0x8(%rsp),%eax
  40164c:	69 c0 9f d0 00 00    	imul   $0xd09f,%eax,%eax
  401652:	89 44 24 08          	mov    %eax,0x8(%rsp)
  401656:	8b 44 24 20          	mov    0x20(%rsp),%eax
  40165a:	69 c0 96 b4 00 00    	imul   $0xb496,%eax,%eax
  401660:	89 44 24 20          	mov    %eax,0x20(%rsp)
  401664:	8b 44 24 20          	mov    0x20(%rsp),%eax
  401668:	69 c0 fe 2b 00 00    	imul   $0x2bfe,%eax,%eax
  40166e:	89 44 24 20          	mov    %eax,0x20(%rsp)
  401672:	8b 44 24 14          	mov    0x14(%rsp),%eax
  401676:	69 c0 bb 76 00 00    	imul   $0x76bb,%eax,%eax
  40167c:	89 44 24 14          	mov    %eax,0x14(%rsp)
  401680:	8b 44 24 0c          	mov    0xc(%rsp),%eax
  401684:	69 c0 0a ab 00 00    	imul   $0xab0a,%eax,%eax
  40168a:	89 44 24 0c          	mov    %eax,0xc(%rsp)
  40168e:	8b 44 24 1c          	mov    0x1c(%rsp),%eax
  401692:	69 c0 13 99 00 00    	imul   $0x9913,%eax,%eax
  401698:	89 44 24 1c          	mov    %eax,0x1c(%rsp)
  40169c:	8b 44 24 08          	mov    0x8(%rsp),%eax
  4016a0:	69 c0 5c 66 00 00    	imul   $0x665c,%eax,%eax
  4016a6:	89 44 24 08          	mov    %eax,0x8(%rsp)
  4016aa:	8b 44 24 14          	mov    0x14(%rsp),%eax
  4016ae:	69 c0 f3 ad 00 00    	imul   $0xadf3,%eax,%eax
  4016b4:	89 44 24 14          	mov    %eax,0x14(%rsp)
  4016b8:	8b 44 24 1c          	mov    0x1c(%rsp),%eax
  4016bc:	69 c0 aa f8 00 00    	imul   $0xf8aa,%eax,%eax
  4016c2:	89 44 24 1c          	mov    %eax,0x1c(%rsp)
  4016c6:	8b 44 24 04          	mov    0x4(%rsp),%eax
  4016ca:	6b c0 0e             	imul   $0xe,%eax,%eax
  4016cd:	89 44 24 04          	mov    %eax,0x4(%rsp)
  4016d1:	8b 44 24 14          	mov    0x14(%rsp),%eax
  4016d5:	69 c0 69 bf 00 00    	imul   $0xbf69,%eax,%eax
  4016db:	89 44 24 14          	mov    %eax,0x14(%rsp)
  4016df:	8b 44 24 14          	mov    0x14(%rsp),%eax
  4016e3:	69 c0 f7 a5 00 00    	imul   $0xa5f7,%eax,%eax
  4016e9:	89 44 24 14          	mov    %eax,0x14(%rsp)
  4016ed:	8b 04 24             	mov    (%rsp),%eax
  4016f0:	69 c0 35 e9 00 00    	imul   $0xe935,%eax,%eax
  4016f6:	89 04 24             	mov    %eax,(%rsp)
  4016f9:	8b 44 24 24          	mov    0x24(%rsp),%eax
  4016fd:	69 c0 09 95 00 00    	imul   $0x9509,%eax,%eax
  401703:	89 44 24 24          	mov    %eax,0x24(%rsp)
  401707:	8b 44 24 1c          	mov    0x1c(%rsp),%eax
  40170b:	69 c0 bb 95 00 00    	imul   $0x95bb,%eax,%eax
  401711:	89 44 24 1c          	mov    %eax,0x1c(%rsp)
  401715:	8b 44 24 04          	mov    0x4(%rsp),%eax
  401719:	69 c0 b2 2f 00 00    	imul   $0x2fb2,%eax,%eax
  40171f:	89 44 24 04          	mov    %eax,0x4(%rsp)
  401723:	8b 04 24             	mov    (%rsp),%eax
  401726:	69 c0 2b 3b 00 00    	imul   $0x3b2b,%eax,%eax
  40172c:	89 04 24             	mov    %eax,(%rsp)
  40172f:	8b 44 24 1c          	mov    0x1c(%rsp),%eax
  401733:	69 c0 11 48 00 00    	imul   $0x4811,%eax,%eax
  401739:	89 44 24 1c          	mov    %eax,0x1c(%rsp)
  40173d:	8b 44 24 18          	mov    0x18(%rsp),%eax
  401741:	69 c0 de 89 00 00    	imul   $0x89de,%eax,%eax
  401747:	89 44 24 18          	mov    %eax,0x18(%rsp)
  40174b:	8b 44 24 20          	mov    0x20(%rsp),%eax
  40174f:	69 c0 7b bb 00 00    	imul   $0xbb7b,%eax,%eax
  401755:	89 44 24 20          	mov    %eax,0x20(%rsp)
  401759:	8b 44 24 10          	mov    0x10(%rsp),%eax
  40175d:	69 c0 91 db 00 00    	imul   $0xdb91,%eax,%eax
  401763:	89 44 24 10          	mov    %eax,0x10(%rsp)
  401767:	8b 44 24 10          	mov    0x10(%rsp),%eax
  40176b:	69 c0 d7 8c 00 00    	imul   $0x8cd7,%eax,%eax
  401771:	89 44 24 10          	mov    %eax,0x10(%rsp)
  401775:	8b 44 24 20          	mov    0x20(%rsp),%eax
  401779:	69 c0 36 a8 00 00    	imul   $0xa836,%eax,%eax
  40177f:	89 44 24 20          	mov    %eax,0x20(%rsp)
  401783:	8b 44 24 18          	mov    0x18(%rsp),%eax
  401787:	69 c0 a7 b6 00 00    	imul   $0xb6a7,%eax,%eax
  40178d:	89 44 24 18          	mov    %eax,0x18(%rsp)
  401791:	8b 44 24 1c          	mov    0x1c(%rsp),%eax
  401795:	69 c0 b4 30 00 00    	imul   $0x30b4,%eax,%eax
  40179b:	89 44 24 1c          	mov    %eax,0x1c(%rsp)
  40179f:	8b 44 24 1c          	mov    0x1c(%rsp),%eax
  4017a3:	69 c0 9b ab 00 00    	imul   $0xab9b,%eax,%eax
  4017a9:	89 44 24 1c          	mov    %eax,0x1c(%rsp)
  4017ad:	8b 44 24 24          	mov    0x24(%rsp),%eax
  4017b1:	69 c0 de 0d 00 00    	imul   $0xdde,%eax,%eax
  4017b7:	89 44 24 24          	mov    %eax,0x24(%rsp)
  4017bb:	8b 44 24 08          	mov    0x8(%rsp),%eax
  4017bf:	69 c0 c8 5b 00 00    	imul   $0x5bc8,%eax,%eax
  4017c5:	89 44 24 08          	mov    %eax,0x8(%rsp)
  4017c9:	8b 44 24 0c          	mov    0xc(%rsp),%eax
  4017cd:	69 c0 a7 80 00 00    	imul   $0x80a7,%eax,%eax
  4017d3:	89 44 24 0c          	mov    %eax,0xc(%rsp)
  4017d7:	8b 04 24             	mov    (%rsp),%eax
  4017da:	69 c0 f3 1c 00 00    	imul   $0x1cf3,%eax,%eax
  4017e0:	89 04 24             	mov    %eax,(%rsp)
  4017e3:	8b 44 24 14          	mov    0x14(%rsp),%eax
  4017e7:	69 c0 67 cf 00 00    	imul   $0xcf67,%eax,%eax
  4017ed:	89 44 24 14          	mov    %eax,0x14(%rsp)
  4017f1:	8b 44 24 10          	mov    0x10(%rsp),%eax
  4017f5:	69 c0 bd 7c 00 00    	imul   $0x7cbd,%eax,%eax
  4017fb:	89 44 24 10          	mov    %eax,0x10(%rsp)
  4017ff:	8b 44 24 08          	mov    0x8(%rsp),%eax
  401803:	69 c0 ed 30 00 00    	imul   $0x30ed,%eax,%eax
  401809:	89 44 24 08          	mov    %eax,0x8(%rsp)
  40180d:	8b 44 24 1c          	mov    0x1c(%rsp),%eax
  401811:	69 c0 bc 71 00 00    	imul   $0x71bc,%eax,%eax
  401817:	89 44 24 1c          	mov    %eax,0x1c(%rsp)
  40181b:	ba 00 00 00 00       	mov    $0x0,%edx
  401820:	b8 00 00 00 00       	mov    $0x0,%eax
  401825:	eb 0a                	jmp    401831 <scramble+0x4f2>
  401827:	89 d1                	mov    %edx,%ecx
  401829:	8b 0c 8c             	mov    (%rsp,%rcx,4),%ecx
  40182c:	01 c8                	add    %ecx,%eax
  40182e:	83 c2 01             	add    $0x1,%edx
  401831:	83 fa 09             	cmp    $0x9,%edx
  401834:	76 f1                	jbe    401827 <scramble+0x4e8>
  401836:	48 8b 74 24 28       	mov    0x28(%rsp),%rsi
  40183b:	64 48 33 34 25 28 00 	xor    %fs:0x28,%rsi
  401842:	00 00 
  401844:	75 05                	jne    40184b <scramble+0x50c>
  401846:	48 83 c4 38          	add    $0x38,%rsp
  40184a:	c3                   	retq   
  40184b:	e8 90 f4 ff ff       	callq  400ce0 <__stack_chk_fail@plt>

0000000000401850 <getbuf>:
  401850:	48 83 ec 18          	sub    $0x18,%rsp
  401854:	48 89 e7             	mov    %rsp,%rdi
  401857:	e8 7e 02 00 00       	callq  401ada <Gets>
  40185c:	b8 01 00 00 00       	mov    $0x1,%eax
  401861:	48 83 c4 18          	add    $0x18,%rsp
  401865:	c3                   	retq   

0000000000401866 <touch1>:
  401866:	48 83 ec 08          	sub    $0x8,%rsp
  40186a:	c7 05 88 2c 20 00 01 	movl   $0x1,0x202c88(%rip)        # 6044fc <vlevel>
  401871:	00 00 00 
  401874:	bf ca 31 40 00       	mov    $0x4031ca,%edi
  401879:	e8 42 f4 ff ff       	callq  400cc0 <puts@plt>
  40187e:	bf 01 00 00 00       	mov    $0x1,%edi
  401883:	e8 a7 04 00 00       	callq  401d2f <validate>
  401888:	bf 00 00 00 00       	mov    $0x0,%edi
  40188d:	e8 9e f5 ff ff       	callq  400e30 <exit@plt>

0000000000401892 <touch2>:
  401892:	48 83 ec 08          	sub    $0x8,%rsp
  401896:	89 fa                	mov    %edi,%edx
  401898:	c7 05 5a 2c 20 00 02 	movl   $0x2,0x202c5a(%rip)        # 6044fc <vlevel>
  40189f:	00 00 00 
  4018a2:	39 3d 5c 2c 20 00    	cmp    %edi,0x202c5c(%rip)        # 604504 <cookie>
  4018a8:	74 28                	je     4018d2 <touch2+0x40>
  4018aa:	be 18 32 40 00       	mov    $0x403218,%esi
  4018af:	bf 01 00 00 00       	mov    $0x1,%edi
  4018b4:	b8 00 00 00 00       	mov    $0x0,%eax
  4018b9:	e8 22 f5 ff ff       	callq  400de0 <__printf_chk@plt>
  4018be:	bf 02 00 00 00       	mov    $0x2,%edi
  4018c3:	e8 2c 05 00 00       	callq  401df4 <fail>
  4018c8:	bf 00 00 00 00       	mov    $0x0,%edi
  4018cd:	e8 5e f5 ff ff       	callq  400e30 <exit@plt>
  4018d2:	be f0 31 40 00       	mov    $0x4031f0,%esi
  4018d7:	bf 01 00 00 00       	mov    $0x1,%edi
  4018dc:	b8 00 00 00 00       	mov    $0x0,%eax
  4018e1:	e8 fa f4 ff ff       	callq  400de0 <__printf_chk@plt>
  4018e6:	bf 02 00 00 00       	mov    $0x2,%edi
  4018eb:	e8 3f 04 00 00       	callq  401d2f <validate>
  4018f0:	eb d6                	jmp    4018c8 <touch2+0x36>

00000000004018f2 <hexmatch>:
  4018f2:	41 54                	push   %r12
  4018f4:	55                   	push   %rbp
  4018f5:	53                   	push   %rbx
  4018f6:	48 83 c4 80          	add    $0xffffffffffffff80,%rsp
  4018fa:	89 fd                	mov    %edi,%ebp
  4018fc:	48 89 f3             	mov    %rsi,%rbx
  4018ff:	64 48 8b 04 25 28 00 	mov    %fs:0x28,%rax
  401906:	00 00 
  401908:	48 89 44 24 78       	mov    %rax,0x78(%rsp)
  40190d:	31 c0                	xor    %eax,%eax
  40190f:	e8 8c f4 ff ff       	callq  400da0 <random@plt>
  401914:	48 89 c1             	mov    %rax,%rcx
  401917:	48 ba 0b d7 a3 70 3d 	movabs $0xa3d70a3d70a3d70b,%rdx
  40191e:	0a d7 a3 
  401921:	48 f7 ea             	imul   %rdx
  401924:	48 01 ca             	add    %rcx,%rdx
  401927:	48 c1 fa 06          	sar    $0x6,%rdx
  40192b:	48 89 c8             	mov    %rcx,%rax
  40192e:	48 c1 f8 3f          	sar    $0x3f,%rax
  401932:	48 29 c2             	sub    %rax,%rdx
  401935:	48 8d 04 92          	lea    (%rdx,%rdx,4),%rax
  401939:	48 8d 14 80          	lea    (%rax,%rax,4),%rdx
  40193d:	48 8d 04 95 00 00 00 	lea    0x0(,%rdx,4),%rax
  401944:	00 
  401945:	48 29 c1             	sub    %rax,%rcx
  401948:	4c 8d 24 0c          	lea    (%rsp,%rcx,1),%r12
  40194c:	41 89 e8             	mov    %ebp,%r8d
  40194f:	b9 e7 31 40 00       	mov    $0x4031e7,%ecx
  401954:	48 c7 c2 ff ff ff ff 	mov    $0xffffffffffffffff,%rdx
  40195b:	be 01 00 00 00       	mov    $0x1,%esi
  401960:	4c 89 e7             	mov    %r12,%rdi
  401963:	b8 00 00 00 00       	mov    $0x0,%eax
  401968:	e8 f3 f4 ff ff       	callq  400e60 <__sprintf_chk@plt>
  40196d:	ba 09 00 00 00       	mov    $0x9,%edx
  401972:	4c 89 e6             	mov    %r12,%rsi
  401975:	48 89 df             	mov    %rbx,%rdi
  401978:	e8 23 f3 ff ff       	callq  400ca0 <strncmp@plt>
  40197d:	85 c0                	test   %eax,%eax
  40197f:	0f 94 c0             	sete   %al
  401982:	48 8b 5c 24 78       	mov    0x78(%rsp),%rbx
  401987:	64 48 33 1c 25 28 00 	xor    %fs:0x28,%rbx
  40198e:	00 00 
  401990:	75 0c                	jne    40199e <hexmatch+0xac>
  401992:	0f b6 c0             	movzbl %al,%eax
  401995:	48 83 ec 80          	sub    $0xffffffffffffff80,%rsp
  401999:	5b                   	pop    %rbx
  40199a:	5d                   	pop    %rbp
  40199b:	41 5c                	pop    %r12
  40199d:	c3                   	retq   
  40199e:	e8 3d f3 ff ff       	callq  400ce0 <__stack_chk_fail@plt>

00000000004019a3 <touch3>:
  4019a3:	53                   	push   %rbx
  4019a4:	48 89 fb             	mov    %rdi,%rbx
  4019a7:	c7 05 4b 2b 20 00 03 	movl   $0x3,0x202b4b(%rip)        # 6044fc <vlevel>
  4019ae:	00 00 00 
  4019b1:	48 89 fe             	mov    %rdi,%rsi
  4019b4:	8b 3d 4a 2b 20 00    	mov    0x202b4a(%rip),%edi        # 604504 <cookie>
  4019ba:	e8 33 ff ff ff       	callq  4018f2 <hexmatch>
  4019bf:	85 c0                	test   %eax,%eax
  4019c1:	74 2b                	je     4019ee <touch3+0x4b>
  4019c3:	48 89 da             	mov    %rbx,%rdx
  4019c6:	be 40 32 40 00       	mov    $0x403240,%esi
  4019cb:	bf 01 00 00 00       	mov    $0x1,%edi
  4019d0:	b8 00 00 00 00       	mov    $0x0,%eax
  4019d5:	e8 06 f4 ff ff       	callq  400de0 <__printf_chk@plt>
  4019da:	bf 03 00 00 00       	mov    $0x3,%edi
  4019df:	e8 4b 03 00 00       	callq  401d2f <validate>
  4019e4:	bf 00 00 00 00       	mov    $0x0,%edi
  4019e9:	e8 42 f4 ff ff       	callq  400e30 <exit@plt>
  4019ee:	48 89 da             	mov    %rbx,%rdx
  4019f1:	be 68 32 40 00       	mov    $0x403268,%esi
  4019f6:	bf 01 00 00 00       	mov    $0x1,%edi
  4019fb:	b8 00 00 00 00       	mov    $0x0,%eax
  401a00:	e8 db f3 ff ff       	callq  400de0 <__printf_chk@plt>
  401a05:	bf 03 00 00 00       	mov    $0x3,%edi
  401a0a:	e8 e5 03 00 00       	callq  401df4 <fail>
  401a0f:	eb d3                	jmp    4019e4 <touch3+0x41>

0000000000401a11 <test>:
  401a11:	48 83 ec 08          	sub    $0x8,%rsp
  401a15:	b8 00 00 00 00       	mov    $0x0,%eax
  401a1a:	e8 31 fe ff ff       	callq  401850 <getbuf>
  401a1f:	89 c2                	mov    %eax,%edx
  401a21:	be 90 32 40 00       	mov    $0x403290,%esi
  401a26:	bf 01 00 00 00       	mov    $0x1,%edi
  401a2b:	b8 00 00 00 00       	mov    $0x0,%eax
  401a30:	e8 ab f3 ff ff       	callq  400de0 <__printf_chk@plt>
  401a35:	48 83 c4 08          	add    $0x8,%rsp
  401a39:	c3                   	retq   

0000000000401a3a <save_char>:
  401a3a:	8b 05 e4 36 20 00    	mov    0x2036e4(%rip),%eax        # 605124 <gets_cnt>
  401a40:	3d ff 03 00 00       	cmp    $0x3ff,%eax
  401a45:	7f 49                	jg     401a90 <save_char+0x56>
  401a47:	89 f9                	mov    %edi,%ecx
  401a49:	c0 e9 04             	shr    $0x4,%cl
  401a4c:	8d 14 40             	lea    (%rax,%rax,2),%edx
  401a4f:	83 e1 0f             	and    $0xf,%ecx
  401a52:	0f b6 b1 b0 35 40 00 	movzbl 0x4035b0(%rcx),%esi
  401a59:	48 63 ca             	movslq %edx,%rcx
  401a5c:	40 88 b1 20 45 60 00 	mov    %sil,0x604520(%rcx)
  401a63:	8d 4a 01             	lea    0x1(%rdx),%ecx
  401a66:	83 e7 0f             	and    $0xf,%edi
  401a69:	0f b6 b7 b0 35 40 00 	movzbl 0x4035b0(%rdi),%esi
  401a70:	48 63 c9             	movslq %ecx,%rcx
  401a73:	40 88 b1 20 45 60 00 	mov    %sil,0x604520(%rcx)
  401a7a:	83 c2 02             	add    $0x2,%edx
  401a7d:	48 63 d2             	movslq %edx,%rdx
  401a80:	c6 82 20 45 60 00 20 	movb   $0x20,0x604520(%rdx)
  401a87:	83 c0 01             	add    $0x1,%eax
  401a8a:	89 05 94 36 20 00    	mov    %eax,0x203694(%rip)        # 605124 <gets_cnt>
  401a90:	f3 c3                	repz retq 

0000000000401a92 <save_term>:
  401a92:	8b 05 8c 36 20 00    	mov    0x20368c(%rip),%eax        # 605124 <gets_cnt>
  401a98:	8d 04 40             	lea    (%rax,%rax,2),%eax
  401a9b:	48 98                	cltq   
  401a9d:	c6 80 20 45 60 00 00 	movb   $0x0,0x604520(%rax)
  401aa4:	c3                   	retq   

0000000000401aa5 <check_fail>:
  401aa5:	48 83 ec 08          	sub    $0x8,%rsp
  401aa9:	0f be 15 78 36 20 00 	movsbl 0x203678(%rip),%edx        # 605128 <target_prefix>
  401ab0:	41 b8 20 45 60 00    	mov    $0x604520,%r8d
  401ab6:	8b 0d 3c 2a 20 00    	mov    0x202a3c(%rip),%ecx        # 6044f8 <check_level>
  401abc:	be b3 32 40 00       	mov    $0x4032b3,%esi
  401ac1:	bf 01 00 00 00       	mov    $0x1,%edi
  401ac6:	b8 00 00 00 00       	mov    $0x0,%eax
  401acb:	e8 10 f3 ff ff       	callq  400de0 <__printf_chk@plt>
  401ad0:	bf 01 00 00 00       	mov    $0x1,%edi
  401ad5:	e8 56 f3 ff ff       	callq  400e30 <exit@plt>

0000000000401ada <Gets>:
  401ada:	41 54                	push   %r12
  401adc:	55                   	push   %rbp
  401add:	53                   	push   %rbx
  401ade:	49 89 fc             	mov    %rdi,%r12
  401ae1:	c7 05 39 36 20 00 00 	movl   $0x0,0x203639(%rip)        # 605124 <gets_cnt>
  401ae8:	00 00 00 
  401aeb:	48 89 fb             	mov    %rdi,%rbx
  401aee:	eb 11                	jmp    401b01 <Gets+0x27>
  401af0:	48 8d 6b 01          	lea    0x1(%rbx),%rbp
  401af4:	88 03                	mov    %al,(%rbx)
  401af6:	0f b6 f8             	movzbl %al,%edi
  401af9:	e8 3c ff ff ff       	callq  401a3a <save_char>
  401afe:	48 89 eb             	mov    %rbp,%rbx
  401b01:	48 8b 3d e8 29 20 00 	mov    0x2029e8(%rip),%rdi        # 6044f0 <infile>
  401b08:	e8 a3 f2 ff ff       	callq  400db0 <_IO_getc@plt>
  401b0d:	83 f8 ff             	cmp    $0xffffffff,%eax
  401b10:	74 05                	je     401b17 <Gets+0x3d>
  401b12:	83 f8 0a             	cmp    $0xa,%eax
  401b15:	75 d9                	jne    401af0 <Gets+0x16>
  401b17:	c6 03 00             	movb   $0x0,(%rbx)
  401b1a:	b8 00 00 00 00       	mov    $0x0,%eax
  401b1f:	e8 6e ff ff ff       	callq  401a92 <save_term>
  401b24:	4c 89 e0             	mov    %r12,%rax
  401b27:	5b                   	pop    %rbx
  401b28:	5d                   	pop    %rbp
  401b29:	41 5c                	pop    %r12
  401b2b:	c3                   	retq   

0000000000401b2c <notify_server>:
  401b2c:	55                   	push   %rbp
  401b2d:	53                   	push   %rbx
  401b2e:	48 81 ec 18 40 00 00 	sub    $0x4018,%rsp
  401b35:	64 48 8b 04 25 28 00 	mov    %fs:0x28,%rax
  401b3c:	00 00 
  401b3e:	48 89 84 24 08 40 00 	mov    %rax,0x4008(%rsp)
  401b45:	00 
  401b46:	31 c0                	xor    %eax,%eax
  401b48:	83 3d b9 29 20 00 00 	cmpl   $0x0,0x2029b9(%rip)        # 604508 <is_checker>
  401b4f:	0f 85 c9 00 00 00    	jne    401c1e <notify_server+0xf2>
  401b55:	89 fb                	mov    %edi,%ebx
  401b57:	8b 05 c7 35 20 00    	mov    0x2035c7(%rip),%eax        # 605124 <gets_cnt>
  401b5d:	83 c0 64             	add    $0x64,%eax
  401b60:	3d 00 20 00 00       	cmp    $0x2000,%eax
  401b65:	0f 8f d4 00 00 00    	jg     401c3f <notify_server+0x113>
  401b6b:	0f be 05 b6 35 20 00 	movsbl 0x2035b6(%rip),%eax        # 605128 <target_prefix>
  401b72:	83 3d 0f 29 20 00 00 	cmpl   $0x0,0x20290f(%rip)        # 604488 <notify>
  401b79:	0f 84 de 00 00 00    	je     401c5d <notify_server+0x131>
  401b7f:	8b 15 7b 29 20 00    	mov    0x20297b(%rip),%edx        # 604500 <authkey>
  401b85:	85 db                	test   %ebx,%ebx
  401b87:	0f 84 da 00 00 00    	je     401c67 <notify_server+0x13b>
  401b8d:	bd c9 32 40 00       	mov    $0x4032c9,%ebp
  401b92:	68 20 45 60 00       	pushq  $0x604520
  401b97:	56                   	push   %rsi
  401b98:	50                   	push   %rax
  401b99:	52                   	push   %rdx
  401b9a:	49 89 e9             	mov    %rbp,%r9
  401b9d:	44 8b 05 a4 25 20 00 	mov    0x2025a4(%rip),%r8d        # 604148 <target_id>
  401ba4:	b9 d3 32 40 00       	mov    $0x4032d3,%ecx
  401ba9:	ba 00 20 00 00       	mov    $0x2000,%edx
  401bae:	be 01 00 00 00       	mov    $0x1,%esi
  401bb3:	48 8d 7c 24 20       	lea    0x20(%rsp),%rdi
  401bb8:	b8 00 00 00 00       	mov    $0x0,%eax
  401bbd:	e8 9e f2 ff ff       	callq  400e60 <__sprintf_chk@plt>
  401bc2:	48 83 c4 20          	add    $0x20,%rsp
  401bc6:	83 3d bb 28 20 00 00 	cmpl   $0x0,0x2028bb(%rip)        # 604488 <notify>
  401bcd:	0f 84 d3 00 00 00    	je     401ca6 <notify_server+0x17a>
  401bd3:	85 db                	test   %ebx,%ebx
  401bd5:	0f 84 bc 00 00 00    	je     401c97 <notify_server+0x16b>
  401bdb:	4c 8d 8c 24 00 20 00 	lea    0x2000(%rsp),%r9
  401be2:	00 
  401be3:	41 b8 00 00 00 00    	mov    $0x0,%r8d
  401be9:	48 89 e1             	mov    %rsp,%rcx
  401bec:	48 8b 15 5d 25 20 00 	mov    0x20255d(%rip),%rdx        # 604150 <lab>
  401bf3:	48 8b 35 5e 25 20 00 	mov    0x20255e(%rip),%rsi        # 604158 <course>
  401bfa:	48 8b 3d 3f 25 20 00 	mov    0x20253f(%rip),%rdi        # 604140 <user_id>
  401c01:	e8 31 11 00 00       	callq  402d37 <driver_post>
  401c06:	85 c0                	test   %eax,%eax
  401c08:	78 67                	js     401c71 <notify_server+0x145>
  401c0a:	bf 18 34 40 00       	mov    $0x403418,%edi
  401c0f:	e8 ac f0 ff ff       	callq  400cc0 <puts@plt>
  401c14:	bf fb 32 40 00       	mov    $0x4032fb,%edi
  401c19:	e8 a2 f0 ff ff       	callq  400cc0 <puts@plt>
  401c1e:	48 8b 84 24 08 40 00 	mov    0x4008(%rsp),%rax
  401c25:	00 
  401c26:	64 48 33 04 25 28 00 	xor    %fs:0x28,%rax
  401c2d:	00 00 
  401c2f:	0f 85 f5 00 00 00    	jne    401d2a <notify_server+0x1fe>
  401c35:	48 81 c4 18 40 00 00 	add    $0x4018,%rsp
  401c3c:	5b                   	pop    %rbx
  401c3d:	5d                   	pop    %rbp
  401c3e:	c3                   	retq   
  401c3f:	be e8 33 40 00       	mov    $0x4033e8,%esi
  401c44:	bf 01 00 00 00       	mov    $0x1,%edi
  401c49:	b8 00 00 00 00       	mov    $0x0,%eax
  401c4e:	e8 8d f1 ff ff       	callq  400de0 <__printf_chk@plt>
  401c53:	bf 01 00 00 00       	mov    $0x1,%edi
  401c58:	e8 d3 f1 ff ff       	callq  400e30 <exit@plt>
  401c5d:	ba ff ff ff ff       	mov    $0xffffffff,%edx
  401c62:	e9 1e ff ff ff       	jmpq   401b85 <notify_server+0x59>
  401c67:	bd ce 32 40 00       	mov    $0x4032ce,%ebp
  401c6c:	e9 21 ff ff ff       	jmpq   401b92 <notify_server+0x66>
  401c71:	48 8d 94 24 00 20 00 	lea    0x2000(%rsp),%rdx
  401c78:	00 
  401c79:	be ef 32 40 00       	mov    $0x4032ef,%esi
  401c7e:	bf 01 00 00 00       	mov    $0x1,%edi
  401c83:	b8 00 00 00 00       	mov    $0x0,%eax
  401c88:	e8 53 f1 ff ff       	callq  400de0 <__printf_chk@plt>
  401c8d:	bf 01 00 00 00       	mov    $0x1,%edi
  401c92:	e8 99 f1 ff ff       	callq  400e30 <exit@plt>
  401c97:	bf 05 33 40 00       	mov    $0x403305,%edi
  401c9c:	e8 1f f0 ff ff       	callq  400cc0 <puts@plt>
  401ca1:	e9 78 ff ff ff       	jmpq   401c1e <notify_server+0xf2>
  401ca6:	48 89 ea             	mov    %rbp,%rdx
  401ca9:	be 50 34 40 00       	mov    $0x403450,%esi
  401cae:	bf 01 00 00 00       	mov    $0x1,%edi
  401cb3:	b8 00 00 00 00       	mov    $0x0,%eax
  401cb8:	e8 23 f1 ff ff       	callq  400de0 <__printf_chk@plt>
  401cbd:	48 8b 15 7c 24 20 00 	mov    0x20247c(%rip),%rdx        # 604140 <user_id>
  401cc4:	be 0c 33 40 00       	mov    $0x40330c,%esi
  401cc9:	bf 01 00 00 00       	mov    $0x1,%edi
  401cce:	b8 00 00 00 00       	mov    $0x0,%eax
  401cd3:	e8 08 f1 ff ff       	callq  400de0 <__printf_chk@plt>
  401cd8:	48 8b 15 79 24 20 00 	mov    0x202479(%rip),%rdx        # 604158 <course>
  401cdf:	be 19 33 40 00       	mov    $0x403319,%esi
  401ce4:	bf 01 00 00 00       	mov    $0x1,%edi
  401ce9:	b8 00 00 00 00       	mov    $0x0,%eax
  401cee:	e8 ed f0 ff ff       	callq  400de0 <__printf_chk@plt>
  401cf3:	48 8b 15 56 24 20 00 	mov    0x202456(%rip),%rdx        # 604150 <lab>
  401cfa:	be 25 33 40 00       	mov    $0x403325,%esi
  401cff:	bf 01 00 00 00       	mov    $0x1,%edi
  401d04:	b8 00 00 00 00       	mov    $0x0,%eax
  401d09:	e8 d2 f0 ff ff       	callq  400de0 <__printf_chk@plt>
  401d0e:	48 89 e2             	mov    %rsp,%rdx
  401d11:	be 2e 33 40 00       	mov    $0x40332e,%esi
  401d16:	bf 01 00 00 00       	mov    $0x1,%edi
  401d1b:	b8 00 00 00 00       	mov    $0x0,%eax
  401d20:	e8 bb f0 ff ff       	callq  400de0 <__printf_chk@plt>
  401d25:	e9 f4 fe ff ff       	jmpq   401c1e <notify_server+0xf2>
  401d2a:	e8 b1 ef ff ff       	callq  400ce0 <__stack_chk_fail@plt>

0000000000401d2f <validate>:
  401d2f:	53                   	push   %rbx
  401d30:	89 fb                	mov    %edi,%ebx
  401d32:	83 3d cf 27 20 00 00 	cmpl   $0x0,0x2027cf(%rip)        # 604508 <is_checker>
  401d39:	74 6b                	je     401da6 <validate+0x77>
  401d3b:	39 3d bb 27 20 00    	cmp    %edi,0x2027bb(%rip)        # 6044fc <vlevel>
  401d41:	75 2f                	jne    401d72 <validate+0x43>
  401d43:	8b 15 af 27 20 00    	mov    0x2027af(%rip),%edx        # 6044f8 <check_level>
  401d49:	39 fa                	cmp    %edi,%edx
  401d4b:	75 39                	jne    401d86 <validate+0x57>
  401d4d:	0f be 15 d4 33 20 00 	movsbl 0x2033d4(%rip),%edx        # 605128 <target_prefix>
  401d54:	41 b8 20 45 60 00    	mov    $0x604520,%r8d
  401d5a:	89 f9                	mov    %edi,%ecx
  401d5c:	be 58 33 40 00       	mov    $0x403358,%esi
  401d61:	bf 01 00 00 00       	mov    $0x1,%edi
  401d66:	b8 00 00 00 00       	mov    $0x0,%eax
  401d6b:	e8 70 f0 ff ff       	callq  400de0 <__printf_chk@plt>
  401d70:	5b                   	pop    %rbx
  401d71:	c3                   	retq   
  401d72:	bf 3a 33 40 00       	mov    $0x40333a,%edi
  401d77:	e8 44 ef ff ff       	callq  400cc0 <puts@plt>
  401d7c:	b8 00 00 00 00       	mov    $0x0,%eax
  401d81:	e8 1f fd ff ff       	callq  401aa5 <check_fail>
  401d86:	89 f9                	mov    %edi,%ecx
  401d88:	be 78 34 40 00       	mov    $0x403478,%esi
  401d8d:	bf 01 00 00 00       	mov    $0x1,%edi
  401d92:	b8 00 00 00 00       	mov    $0x0,%eax
  401d97:	e8 44 f0 ff ff       	callq  400de0 <__printf_chk@plt>
  401d9c:	b8 00 00 00 00       	mov    $0x0,%eax
  401da1:	e8 ff fc ff ff       	callq  401aa5 <check_fail>
  401da6:	39 3d 50 27 20 00    	cmp    %edi,0x202750(%rip)        # 6044fc <vlevel>
  401dac:	74 18                	je     401dc6 <validate+0x97>
  401dae:	bf 3a 33 40 00       	mov    $0x40333a,%edi
  401db3:	e8 08 ef ff ff       	callq  400cc0 <puts@plt>
  401db8:	89 de                	mov    %ebx,%esi
  401dba:	bf 00 00 00 00       	mov    $0x0,%edi
  401dbf:	e8 68 fd ff ff       	callq  401b2c <notify_server>
  401dc4:	eb aa                	jmp    401d70 <validate+0x41>
  401dc6:	0f be 0d 5b 33 20 00 	movsbl 0x20335b(%rip),%ecx        # 605128 <target_prefix>
  401dcd:	89 fa                	mov    %edi,%edx
  401dcf:	be a0 34 40 00       	mov    $0x4034a0,%esi
  401dd4:	bf 01 00 00 00       	mov    $0x1,%edi
  401dd9:	b8 00 00 00 00       	mov    $0x0,%eax
  401dde:	e8 fd ef ff ff       	callq  400de0 <__printf_chk@plt>
  401de3:	89 de                	mov    %ebx,%esi
  401de5:	bf 01 00 00 00       	mov    $0x1,%edi
  401dea:	e8 3d fd ff ff       	callq  401b2c <notify_server>
  401def:	e9 7c ff ff ff       	jmpq   401d70 <validate+0x41>

0000000000401df4 <fail>:
  401df4:	48 83 ec 08          	sub    $0x8,%rsp
  401df8:	83 3d 09 27 20 00 00 	cmpl   $0x0,0x202709(%rip)        # 604508 <is_checker>
  401dff:	75 11                	jne    401e12 <fail+0x1e>
  401e01:	89 fe                	mov    %edi,%esi
  401e03:	bf 00 00 00 00       	mov    $0x0,%edi
  401e08:	e8 1f fd ff ff       	callq  401b2c <notify_server>
  401e0d:	48 83 c4 08          	add    $0x8,%rsp
  401e11:	c3                   	retq   
  401e12:	b8 00 00 00 00       	mov    $0x0,%eax
  401e17:	e8 89 fc ff ff       	callq  401aa5 <check_fail>

0000000000401e1c <bushandler>:
  401e1c:	48 83 ec 08          	sub    $0x8,%rsp
  401e20:	83 3d e1 26 20 00 00 	cmpl   $0x0,0x2026e1(%rip)        # 604508 <is_checker>
  401e27:	74 14                	je     401e3d <bushandler+0x21>
  401e29:	bf 6d 33 40 00       	mov    $0x40336d,%edi
  401e2e:	e8 8d ee ff ff       	callq  400cc0 <puts@plt>
  401e33:	b8 00 00 00 00       	mov    $0x0,%eax
  401e38:	e8 68 fc ff ff       	callq  401aa5 <check_fail>
  401e3d:	bf d8 34 40 00       	mov    $0x4034d8,%edi
  401e42:	e8 79 ee ff ff       	callq  400cc0 <puts@plt>
  401e47:	bf 77 33 40 00       	mov    $0x403377,%edi
  401e4c:	e8 6f ee ff ff       	callq  400cc0 <puts@plt>
  401e51:	be 00 00 00 00       	mov    $0x0,%esi
  401e56:	bf 00 00 00 00       	mov    $0x0,%edi
  401e5b:	e8 cc fc ff ff       	callq  401b2c <notify_server>
  401e60:	bf 01 00 00 00       	mov    $0x1,%edi
  401e65:	e8 c6 ef ff ff       	callq  400e30 <exit@plt>

0000000000401e6a <seghandler>:
  401e6a:	48 83 ec 08          	sub    $0x8,%rsp
  401e6e:	83 3d 93 26 20 00 00 	cmpl   $0x0,0x202693(%rip)        # 604508 <is_checker>
  401e75:	74 14                	je     401e8b <seghandler+0x21>
  401e77:	bf 8d 33 40 00       	mov    $0x40338d,%edi
  401e7c:	e8 3f ee ff ff       	callq  400cc0 <puts@plt>
  401e81:	b8 00 00 00 00       	mov    $0x0,%eax
  401e86:	e8 1a fc ff ff       	callq  401aa5 <check_fail>
  401e8b:	bf f8 34 40 00       	mov    $0x4034f8,%edi
  401e90:	e8 2b ee ff ff       	callq  400cc0 <puts@plt>
  401e95:	bf 77 33 40 00       	mov    $0x403377,%edi
  401e9a:	e8 21 ee ff ff       	callq  400cc0 <puts@plt>
  401e9f:	be 00 00 00 00       	mov    $0x0,%esi
  401ea4:	bf 00 00 00 00       	mov    $0x0,%edi
  401ea9:	e8 7e fc ff ff       	callq  401b2c <notify_server>
  401eae:	bf 01 00 00 00       	mov    $0x1,%edi
  401eb3:	e8 78 ef ff ff       	callq  400e30 <exit@plt>

0000000000401eb8 <illegalhandler>:
  401eb8:	48 83 ec 08          	sub    $0x8,%rsp
  401ebc:	83 3d 45 26 20 00 00 	cmpl   $0x0,0x202645(%rip)        # 604508 <is_checker>
  401ec3:	74 14                	je     401ed9 <illegalhandler+0x21>
  401ec5:	bf a0 33 40 00       	mov    $0x4033a0,%edi
  401eca:	e8 f1 ed ff ff       	callq  400cc0 <puts@plt>
  401ecf:	b8 00 00 00 00       	mov    $0x0,%eax
  401ed4:	e8 cc fb ff ff       	callq  401aa5 <check_fail>
  401ed9:	bf 20 35 40 00       	mov    $0x403520,%edi
  401ede:	e8 dd ed ff ff       	callq  400cc0 <puts@plt>
  401ee3:	bf 77 33 40 00       	mov    $0x403377,%edi
  401ee8:	e8 d3 ed ff ff       	callq  400cc0 <puts@plt>
  401eed:	be 00 00 00 00       	mov    $0x0,%esi
  401ef2:	bf 00 00 00 00       	mov    $0x0,%edi
  401ef7:	e8 30 fc ff ff       	callq  401b2c <notify_server>
  401efc:	bf 01 00 00 00       	mov    $0x1,%edi
  401f01:	e8 2a ef ff ff       	callq  400e30 <exit@plt>

0000000000401f06 <sigalrmhandler>:
  401f06:	48 83 ec 08          	sub    $0x8,%rsp
  401f0a:	83 3d f7 25 20 00 00 	cmpl   $0x0,0x2025f7(%rip)        # 604508 <is_checker>
  401f11:	74 14                	je     401f27 <sigalrmhandler+0x21>
  401f13:	bf b4 33 40 00       	mov    $0x4033b4,%edi
  401f18:	e8 a3 ed ff ff       	callq  400cc0 <puts@plt>
  401f1d:	b8 00 00 00 00       	mov    $0x0,%eax
  401f22:	e8 7e fb ff ff       	callq  401aa5 <check_fail>
  401f27:	ba 05 00 00 00       	mov    $0x5,%edx
  401f2c:	be 50 35 40 00       	mov    $0x403550,%esi
  401f31:	bf 01 00 00 00       	mov    $0x1,%edi
  401f36:	b8 00 00 00 00       	mov    $0x0,%eax
  401f3b:	e8 a0 ee ff ff       	callq  400de0 <__printf_chk@plt>
  401f40:	be 00 00 00 00       	mov    $0x0,%esi
  401f45:	bf 00 00 00 00       	mov    $0x0,%edi
  401f4a:	e8 dd fb ff ff       	callq  401b2c <notify_server>
  401f4f:	bf 01 00 00 00       	mov    $0x1,%edi
  401f54:	e8 d7 ee ff ff       	callq  400e30 <exit@plt>

0000000000401f59 <launch>:
  401f59:	55                   	push   %rbp
  401f5a:	48 89 e5             	mov    %rsp,%rbp
  401f5d:	48 83 ec 10          	sub    $0x10,%rsp
  401f61:	48 89 fa             	mov    %rdi,%rdx
  401f64:	64 48 8b 04 25 28 00 	mov    %fs:0x28,%rax
  401f6b:	00 00 
  401f6d:	48 89 45 f8          	mov    %rax,-0x8(%rbp)
  401f71:	31 c0                	xor    %eax,%eax
  401f73:	48 8d 47 1e          	lea    0x1e(%rdi),%rax
  401f77:	48 83 e0 f0          	and    $0xfffffffffffffff0,%rax
  401f7b:	48 29 c4             	sub    %rax,%rsp
  401f7e:	48 8d 7c 24 0f       	lea    0xf(%rsp),%rdi
  401f83:	48 83 e7 f0          	and    $0xfffffffffffffff0,%rdi
  401f87:	be f4 00 00 00       	mov    $0xf4,%esi
  401f8c:	e8 6f ed ff ff       	callq  400d00 <memset@plt>
  401f91:	48 8b 05 08 25 20 00 	mov    0x202508(%rip),%rax        # 6044a0 <stdin@@GLIBC_2.2.5>
  401f98:	48 39 05 51 25 20 00 	cmp    %rax,0x202551(%rip)        # 6044f0 <infile>
  401f9f:	74 38                	je     401fd9 <launch+0x80>
  401fa1:	c7 05 51 25 20 00 00 	movl   $0x0,0x202551(%rip)        # 6044fc <vlevel>
  401fa8:	00 00 00 
  401fab:	b8 00 00 00 00       	mov    $0x0,%eax
  401fb0:	e8 5c fa ff ff       	callq  401a11 <test>
  401fb5:	83 3d 4c 25 20 00 00 	cmpl   $0x0,0x20254c(%rip)        # 604508 <is_checker>
  401fbc:	75 31                	jne    401fef <launch+0x96>
  401fbe:	bf d4 33 40 00       	mov    $0x4033d4,%edi
  401fc3:	e8 f8 ec ff ff       	callq  400cc0 <puts@plt>
  401fc8:	48 8b 45 f8          	mov    -0x8(%rbp),%rax
  401fcc:	64 48 33 04 25 28 00 	xor    %fs:0x28,%rax
  401fd3:	00 00 
  401fd5:	75 2c                	jne    402003 <launch+0xaa>
  401fd7:	c9                   	leaveq 
  401fd8:	c3                   	retq   
  401fd9:	be bc 33 40 00       	mov    $0x4033bc,%esi
  401fde:	bf 01 00 00 00       	mov    $0x1,%edi
  401fe3:	b8 00 00 00 00       	mov    $0x0,%eax
  401fe8:	e8 f3 ed ff ff       	callq  400de0 <__printf_chk@plt>
  401fed:	eb b2                	jmp    401fa1 <launch+0x48>
  401fef:	bf c9 33 40 00       	mov    $0x4033c9,%edi
  401ff4:	e8 c7 ec ff ff       	callq  400cc0 <puts@plt>
  401ff9:	b8 00 00 00 00       	mov    $0x0,%eax
  401ffe:	e8 a2 fa ff ff       	callq  401aa5 <check_fail>
  402003:	e8 d8 ec ff ff       	callq  400ce0 <__stack_chk_fail@plt>

0000000000402008 <stable_launch>:
  402008:	53                   	push   %rbx
  402009:	48 89 3d d8 24 20 00 	mov    %rdi,0x2024d8(%rip)        # 6044e8 <global_offset>
  402010:	41 b9 00 00 00 00    	mov    $0x0,%r9d
  402016:	41 b8 00 00 00 00    	mov    $0x0,%r8d
  40201c:	b9 32 01 00 00       	mov    $0x132,%ecx
  402021:	ba 07 00 00 00       	mov    $0x7,%edx
  402026:	be 00 00 10 00       	mov    $0x100000,%esi
  40202b:	bf 00 60 58 55       	mov    $0x55586000,%edi
  402030:	e8 bb ec ff ff       	callq  400cf0 <mmap@plt>
  402035:	48 89 c3             	mov    %rax,%rbx
  402038:	48 3d 00 60 58 55    	cmp    $0x55586000,%rax
  40203e:	75 43                	jne    402083 <stable_launch+0x7b>
  402040:	48 8d 90 f8 ff 0f 00 	lea    0xffff8(%rax),%rdx
  402047:	48 89 15 e2 30 20 00 	mov    %rdx,0x2030e2(%rip)        # 605130 <stack_top>
  40204e:	48 89 e0             	mov    %rsp,%rax
  402051:	48 89 d4             	mov    %rdx,%rsp
  402054:	48 89 c2             	mov    %rax,%rdx
  402057:	48 89 15 82 24 20 00 	mov    %rdx,0x202482(%rip)        # 6044e0 <global_save_stack>
  40205e:	48 8b 3d 83 24 20 00 	mov    0x202483(%rip),%rdi        # 6044e8 <global_offset>
  402065:	e8 ef fe ff ff       	callq  401f59 <launch>
  40206a:	48 8b 05 6f 24 20 00 	mov    0x20246f(%rip),%rax        # 6044e0 <global_save_stack>
  402071:	48 89 c4             	mov    %rax,%rsp
  402074:	be 00 00 10 00       	mov    $0x100000,%esi
  402079:	48 89 df             	mov    %rbx,%rdi
  40207c:	e8 4f ed ff ff       	callq  400dd0 <munmap@plt>
  402081:	5b                   	pop    %rbx
  402082:	c3                   	retq   
  402083:	be 00 00 10 00       	mov    $0x100000,%esi
  402088:	48 89 c7             	mov    %rax,%rdi
  40208b:	e8 40 ed ff ff       	callq  400dd0 <munmap@plt>
  402090:	b9 00 60 58 55       	mov    $0x55586000,%ecx
  402095:	ba 88 35 40 00       	mov    $0x403588,%edx
  40209a:	be 01 00 00 00       	mov    $0x1,%esi
  40209f:	48 8b 3d 1a 24 20 00 	mov    0x20241a(%rip),%rdi        # 6044c0 <stderr@@GLIBC_2.2.5>
  4020a6:	b8 00 00 00 00       	mov    $0x0,%eax
  4020ab:	e8 a0 ed ff ff       	callq  400e50 <__fprintf_chk@plt>
  4020b0:	bf 01 00 00 00       	mov    $0x1,%edi
  4020b5:	e8 76 ed ff ff       	callq  400e30 <exit@plt>

00000000004020ba <rio_readinitb>:
  4020ba:	89 37                	mov    %esi,(%rdi)
  4020bc:	c7 47 04 00 00 00 00 	movl   $0x0,0x4(%rdi)
  4020c3:	48 8d 47 10          	lea    0x10(%rdi),%rax
  4020c7:	48 89 47 08          	mov    %rax,0x8(%rdi)
  4020cb:	c3                   	retq   

00000000004020cc <sigalrm_handler>:
  4020cc:	48 83 ec 08          	sub    $0x8,%rsp
  4020d0:	b9 00 00 00 00       	mov    $0x0,%ecx
  4020d5:	ba c0 35 40 00       	mov    $0x4035c0,%edx
  4020da:	be 01 00 00 00       	mov    $0x1,%esi
  4020df:	48 8b 3d da 23 20 00 	mov    0x2023da(%rip),%rdi        # 6044c0 <stderr@@GLIBC_2.2.5>
  4020e6:	b8 00 00 00 00       	mov    $0x0,%eax
  4020eb:	e8 60 ed ff ff       	callq  400e50 <__fprintf_chk@plt>
  4020f0:	bf 01 00 00 00       	mov    $0x1,%edi
  4020f5:	e8 36 ed ff ff       	callq  400e30 <exit@plt>

00000000004020fa <rio_writen>:
  4020fa:	41 55                	push   %r13
  4020fc:	41 54                	push   %r12
  4020fe:	55                   	push   %rbp
  4020ff:	53                   	push   %rbx
  402100:	48 83 ec 08          	sub    $0x8,%rsp
  402104:	41 89 fc             	mov    %edi,%r12d
  402107:	48 89 f5             	mov    %rsi,%rbp
  40210a:	49 89 d5             	mov    %rdx,%r13
  40210d:	48 89 d3             	mov    %rdx,%rbx
  402110:	eb 06                	jmp    402118 <rio_writen+0x1e>
  402112:	48 29 c3             	sub    %rax,%rbx
  402115:	48 01 c5             	add    %rax,%rbp
  402118:	48 85 db             	test   %rbx,%rbx
  40211b:	74 24                	je     402141 <rio_writen+0x47>
  40211d:	48 89 da             	mov    %rbx,%rdx
  402120:	48 89 ee             	mov    %rbp,%rsi
  402123:	44 89 e7             	mov    %r12d,%edi
  402126:	e8 a5 eb ff ff       	callq  400cd0 <write@plt>
  40212b:	48 85 c0             	test   %rax,%rax
  40212e:	7f e2                	jg     402112 <rio_writen+0x18>
  402130:	e8 4b eb ff ff       	callq  400c80 <__errno_location@plt>
  402135:	83 38 04             	cmpl   $0x4,(%rax)
  402138:	75 15                	jne    40214f <rio_writen+0x55>
  40213a:	b8 00 00 00 00       	mov    $0x0,%eax
  40213f:	eb d1                	jmp    402112 <rio_writen+0x18>
  402141:	4c 89 e8             	mov    %r13,%rax
  402144:	48 83 c4 08          	add    $0x8,%rsp
  402148:	5b                   	pop    %rbx
  402149:	5d                   	pop    %rbp
  40214a:	41 5c                	pop    %r12
  40214c:	41 5d                	pop    %r13
  40214e:	c3                   	retq   
  40214f:	48 c7 c0 ff ff ff ff 	mov    $0xffffffffffffffff,%rax
  402156:	eb ec                	jmp    402144 <rio_writen+0x4a>

0000000000402158 <rio_read>:
  402158:	41 55                	push   %r13
  40215a:	41 54                	push   %r12
  40215c:	55                   	push   %rbp
  40215d:	53                   	push   %rbx
  40215e:	48 83 ec 08          	sub    $0x8,%rsp
  402162:	48 89 fb             	mov    %rdi,%rbx
  402165:	49 89 f5             	mov    %rsi,%r13
  402168:	49 89 d4             	mov    %rdx,%r12
  40216b:	eb 0a                	jmp    402177 <rio_read+0x1f>
  40216d:	e8 0e eb ff ff       	callq  400c80 <__errno_location@plt>
  402172:	83 38 04             	cmpl   $0x4,(%rax)
  402175:	75 5c                	jne    4021d3 <rio_read+0x7b>
  402177:	8b 6b 04             	mov    0x4(%rbx),%ebp
  40217a:	85 ed                	test   %ebp,%ebp
  40217c:	7f 24                	jg     4021a2 <rio_read+0x4a>
  40217e:	48 8d 6b 10          	lea    0x10(%rbx),%rbp
  402182:	8b 3b                	mov    (%rbx),%edi
  402184:	ba 00 20 00 00       	mov    $0x2000,%edx
  402189:	48 89 ee             	mov    %rbp,%rsi
  40218c:	e8 9f eb ff ff       	callq  400d30 <read@plt>
  402191:	89 43 04             	mov    %eax,0x4(%rbx)
  402194:	85 c0                	test   %eax,%eax
  402196:	78 d5                	js     40216d <rio_read+0x15>
  402198:	85 c0                	test   %eax,%eax
  40219a:	74 40                	je     4021dc <rio_read+0x84>
  40219c:	48 89 6b 08          	mov    %rbp,0x8(%rbx)
  4021a0:	eb d5                	jmp    402177 <rio_read+0x1f>
  4021a2:	89 e8                	mov    %ebp,%eax
  4021a4:	4c 39 e0             	cmp    %r12,%rax
  4021a7:	72 03                	jb     4021ac <rio_read+0x54>
  4021a9:	44 89 e5             	mov    %r12d,%ebp
  4021ac:	4c 63 e5             	movslq %ebp,%r12
  4021af:	48 8b 73 08          	mov    0x8(%rbx),%rsi
  4021b3:	4c 89 e2             	mov    %r12,%rdx
  4021b6:	4c 89 ef             	mov    %r13,%rdi
  4021b9:	e8 c2 eb ff ff       	callq  400d80 <memcpy@plt>
  4021be:	4c 01 63 08          	add    %r12,0x8(%rbx)
  4021c2:	29 6b 04             	sub    %ebp,0x4(%rbx)
  4021c5:	4c 89 e0             	mov    %r12,%rax
  4021c8:	48 83 c4 08          	add    $0x8,%rsp
  4021cc:	5b                   	pop    %rbx
  4021cd:	5d                   	pop    %rbp
  4021ce:	41 5c                	pop    %r12
  4021d0:	41 5d                	pop    %r13
  4021d2:	c3                   	retq   
  4021d3:	48 c7 c0 ff ff ff ff 	mov    $0xffffffffffffffff,%rax
  4021da:	eb ec                	jmp    4021c8 <rio_read+0x70>
  4021dc:	b8 00 00 00 00       	mov    $0x0,%eax
  4021e1:	eb e5                	jmp    4021c8 <rio_read+0x70>

00000000004021e3 <rio_readlineb>:
  4021e3:	41 55                	push   %r13
  4021e5:	41 54                	push   %r12
  4021e7:	55                   	push   %rbp
  4021e8:	53                   	push   %rbx
  4021e9:	48 83 ec 18          	sub    $0x18,%rsp
  4021ed:	49 89 fd             	mov    %rdi,%r13
  4021f0:	48 89 f5             	mov    %rsi,%rbp
  4021f3:	49 89 d4             	mov    %rdx,%r12
  4021f6:	64 48 8b 04 25 28 00 	mov    %fs:0x28,%rax
  4021fd:	00 00 
  4021ff:	48 89 44 24 08       	mov    %rax,0x8(%rsp)
  402204:	31 c0                	xor    %eax,%eax
  402206:	bb 01 00 00 00       	mov    $0x1,%ebx
  40220b:	4c 39 e3             	cmp    %r12,%rbx
  40220e:	73 47                	jae    402257 <rio_readlineb+0x74>
  402210:	ba 01 00 00 00       	mov    $0x1,%edx
  402215:	48 8d 74 24 07       	lea    0x7(%rsp),%rsi
  40221a:	4c 89 ef             	mov    %r13,%rdi
  40221d:	e8 36 ff ff ff       	callq  402158 <rio_read>
  402222:	83 f8 01             	cmp    $0x1,%eax
  402225:	75 1c                	jne    402243 <rio_readlineb+0x60>
  402227:	48 8d 45 01          	lea    0x1(%rbp),%rax
  40222b:	0f b6 54 24 07       	movzbl 0x7(%rsp),%edx
  402230:	88 55 00             	mov    %dl,0x0(%rbp)
  402233:	80 7c 24 07 0a       	cmpb   $0xa,0x7(%rsp)
  402238:	74 1a                	je     402254 <rio_readlineb+0x71>
  40223a:	48 83 c3 01          	add    $0x1,%rbx
  40223e:	48 89 c5             	mov    %rax,%rbp
  402241:	eb c8                	jmp    40220b <rio_readlineb+0x28>
  402243:	85 c0                	test   %eax,%eax
  402245:	75 32                	jne    402279 <rio_readlineb+0x96>
  402247:	48 83 fb 01          	cmp    $0x1,%rbx
  40224b:	75 0a                	jne    402257 <rio_readlineb+0x74>
  40224d:	b8 00 00 00 00       	mov    $0x0,%eax
  402252:	eb 0a                	jmp    40225e <rio_readlineb+0x7b>
  402254:	48 89 c5             	mov    %rax,%rbp
  402257:	c6 45 00 00          	movb   $0x0,0x0(%rbp)
  40225b:	48 89 d8             	mov    %rbx,%rax
  40225e:	48 8b 4c 24 08       	mov    0x8(%rsp),%rcx
  402263:	64 48 33 0c 25 28 00 	xor    %fs:0x28,%rcx
  40226a:	00 00 
  40226c:	75 14                	jne    402282 <rio_readlineb+0x9f>
  40226e:	48 83 c4 18          	add    $0x18,%rsp
  402272:	5b                   	pop    %rbx
  402273:	5d                   	pop    %rbp
  402274:	41 5c                	pop    %r12
  402276:	41 5d                	pop    %r13
  402278:	c3                   	retq   
  402279:	48 c7 c0 ff ff ff ff 	mov    $0xffffffffffffffff,%rax
  402280:	eb dc                	jmp    40225e <rio_readlineb+0x7b>
  402282:	e8 59 ea ff ff       	callq  400ce0 <__stack_chk_fail@plt>

0000000000402287 <urlencode>:
  402287:	41 54                	push   %r12
  402289:	55                   	push   %rbp
  40228a:	53                   	push   %rbx
  40228b:	48 83 ec 10          	sub    $0x10,%rsp
  40228f:	48 89 fb             	mov    %rdi,%rbx
  402292:	48 89 f5             	mov    %rsi,%rbp
  402295:	64 48 8b 04 25 28 00 	mov    %fs:0x28,%rax
  40229c:	00 00 
  40229e:	48 89 44 24 08       	mov    %rax,0x8(%rsp)
  4022a3:	31 c0                	xor    %eax,%eax
  4022a5:	48 c7 c1 ff ff ff ff 	mov    $0xffffffffffffffff,%rcx
  4022ac:	f2 ae                	repnz scas %es:(%rdi),%al
  4022ae:	48 89 ce             	mov    %rcx,%rsi
  4022b1:	48 f7 d6             	not    %rsi
  4022b4:	8d 46 ff             	lea    -0x1(%rsi),%eax
  4022b7:	eb 0f                	jmp    4022c8 <urlencode+0x41>
  4022b9:	44 88 45 00          	mov    %r8b,0x0(%rbp)
  4022bd:	48 8d 6d 01          	lea    0x1(%rbp),%rbp
  4022c1:	48 83 c3 01          	add    $0x1,%rbx
  4022c5:	44 89 e0             	mov    %r12d,%eax
  4022c8:	44 8d 60 ff          	lea    -0x1(%rax),%r12d
  4022cc:	85 c0                	test   %eax,%eax
  4022ce:	0f 84 a6 00 00 00    	je     40237a <urlencode+0xf3>
  4022d4:	44 0f b6 03          	movzbl (%rbx),%r8d
  4022d8:	41 80 f8 2a          	cmp    $0x2a,%r8b
  4022dc:	0f 94 c2             	sete   %dl
  4022df:	41 80 f8 2d          	cmp    $0x2d,%r8b
  4022e3:	0f 94 c0             	sete   %al
  4022e6:	08 c2                	or     %al,%dl
  4022e8:	75 cf                	jne    4022b9 <urlencode+0x32>
  4022ea:	41 80 f8 2e          	cmp    $0x2e,%r8b
  4022ee:	74 c9                	je     4022b9 <urlencode+0x32>
  4022f0:	41 80 f8 5f          	cmp    $0x5f,%r8b
  4022f4:	74 c3                	je     4022b9 <urlencode+0x32>
  4022f6:	41 8d 40 d0          	lea    -0x30(%r8),%eax
  4022fa:	3c 09                	cmp    $0x9,%al
  4022fc:	76 bb                	jbe    4022b9 <urlencode+0x32>
  4022fe:	41 8d 40 bf          	lea    -0x41(%r8),%eax
  402302:	3c 19                	cmp    $0x19,%al
  402304:	76 b3                	jbe    4022b9 <urlencode+0x32>
  402306:	41 8d 40 9f          	lea    -0x61(%r8),%eax
  40230a:	3c 19                	cmp    $0x19,%al
  40230c:	76 ab                	jbe    4022b9 <urlencode+0x32>
  40230e:	41 80 f8 20          	cmp    $0x20,%r8b
  402312:	74 54                	je     402368 <urlencode+0xe1>
  402314:	41 8d 40 e0          	lea    -0x20(%r8),%eax
  402318:	3c 5f                	cmp    $0x5f,%al
  40231a:	0f 96 c2             	setbe  %dl
  40231d:	41 80 f8 09          	cmp    $0x9,%r8b
  402321:	0f 94 c0             	sete   %al
  402324:	08 c2                	or     %al,%dl
  402326:	74 4d                	je     402375 <urlencode+0xee>
  402328:	45 0f b6 c0          	movzbl %r8b,%r8d
  40232c:	b9 58 36 40 00       	mov    $0x403658,%ecx
  402331:	ba 08 00 00 00       	mov    $0x8,%edx
  402336:	be 01 00 00 00       	mov    $0x1,%esi
  40233b:	48 89 e7             	mov    %rsp,%rdi
  40233e:	b8 00 00 00 00       	mov    $0x0,%eax
  402343:	e8 18 eb ff ff       	callq  400e60 <__sprintf_chk@plt>
  402348:	0f b6 04 24          	movzbl (%rsp),%eax
  40234c:	88 45 00             	mov    %al,0x0(%rbp)
  40234f:	0f b6 44 24 01       	movzbl 0x1(%rsp),%eax
  402354:	88 45 01             	mov    %al,0x1(%rbp)
  402357:	0f b6 44 24 02       	movzbl 0x2(%rsp),%eax
  40235c:	88 45 02             	mov    %al,0x2(%rbp)
  40235f:	48 8d 6d 03          	lea    0x3(%rbp),%rbp
  402363:	e9 59 ff ff ff       	jmpq   4022c1 <urlencode+0x3a>
  402368:	c6 45 00 2b          	movb   $0x2b,0x0(%rbp)
  40236c:	48 8d 6d 01          	lea    0x1(%rbp),%rbp
  402370:	e9 4c ff ff ff       	jmpq   4022c1 <urlencode+0x3a>
  402375:	b8 ff ff ff ff       	mov    $0xffffffff,%eax
  40237a:	48 8b 74 24 08       	mov    0x8(%rsp),%rsi
  40237f:	64 48 33 34 25 28 00 	xor    %fs:0x28,%rsi
  402386:	00 00 
  402388:	75 09                	jne    402393 <urlencode+0x10c>
  40238a:	48 83 c4 10          	add    $0x10,%rsp
  40238e:	5b                   	pop    %rbx
  40238f:	5d                   	pop    %rbp
  402390:	41 5c                	pop    %r12
  402392:	c3                   	retq   
  402393:	e8 48 e9 ff ff       	callq  400ce0 <__stack_chk_fail@plt>

0000000000402398 <submitr>:
  402398:	41 57                	push   %r15
  40239a:	41 56                	push   %r14
  40239c:	41 55                	push   %r13
  40239e:	41 54                	push   %r12
  4023a0:	55                   	push   %rbp
  4023a1:	53                   	push   %rbx
  4023a2:	48 81 ec 58 a0 00 00 	sub    $0xa058,%rsp
  4023a9:	49 89 fc             	mov    %rdi,%r12
  4023ac:	89 74 24 04          	mov    %esi,0x4(%rsp)
  4023b0:	49 89 d7             	mov    %rdx,%r15
  4023b3:	49 89 ce             	mov    %rcx,%r14
  4023b6:	4c 89 44 24 08       	mov    %r8,0x8(%rsp)
  4023bb:	4d 89 cd             	mov    %r9,%r13
  4023be:	48 8b ac 24 90 a0 00 	mov    0xa090(%rsp),%rbp
  4023c5:	00 
  4023c6:	64 48 8b 04 25 28 00 	mov    %fs:0x28,%rax
  4023cd:	00 00 
  4023cf:	48 89 84 24 48 a0 00 	mov    %rax,0xa048(%rsp)
  4023d6:	00 
  4023d7:	31 c0                	xor    %eax,%eax
  4023d9:	c7 44 24 1c 00 00 00 	movl   $0x0,0x1c(%rsp)
  4023e0:	00 
  4023e1:	ba 00 00 00 00       	mov    $0x0,%edx
  4023e6:	be 01 00 00 00       	mov    $0x1,%esi
  4023eb:	bf 02 00 00 00       	mov    $0x2,%edi
  4023f0:	e8 7b ea ff ff       	callq  400e70 <socket@plt>
  4023f5:	85 c0                	test   %eax,%eax
  4023f7:	0f 88 9b 02 00 00    	js     402698 <submitr+0x300>
  4023fd:	89 c3                	mov    %eax,%ebx
  4023ff:	4c 89 e7             	mov    %r12,%rdi
  402402:	e8 49 e9 ff ff       	callq  400d50 <gethostbyname@plt>
  402407:	48 85 c0             	test   %rax,%rax
  40240a:	0f 84 d4 02 00 00    	je     4026e4 <submitr+0x34c>
  402410:	48 c7 44 24 22 00 00 	movq   $0x0,0x22(%rsp)
  402417:	00 00 
  402419:	c7 44 24 2a 00 00 00 	movl   $0x0,0x2a(%rsp)
  402420:	00 
  402421:	66 c7 44 24 2e 00 00 	movw   $0x0,0x2e(%rsp)
  402428:	66 c7 44 24 20 02 00 	movw   $0x2,0x20(%rsp)
  40242f:	48 63 50 14          	movslq 0x14(%rax),%rdx
  402433:	48 8b 40 18          	mov    0x18(%rax),%rax
  402437:	48 8b 30             	mov    (%rax),%rsi
  40243a:	48 8d 7c 24 24       	lea    0x24(%rsp),%rdi
  40243f:	b9 0c 00 00 00       	mov    $0xc,%ecx
  402444:	e8 17 e9 ff ff       	callq  400d60 <__memmove_chk@plt>
  402449:	0f b7 44 24 04       	movzwl 0x4(%rsp),%eax
  40244e:	66 c1 c8 08          	ror    $0x8,%ax
  402452:	66 89 44 24 22       	mov    %ax,0x22(%rsp)
  402457:	ba 10 00 00 00       	mov    $0x10,%edx
  40245c:	48 8d 74 24 20       	lea    0x20(%rsp),%rsi
  402461:	89 df                	mov    %ebx,%edi
  402463:	e8 d8 e9 ff ff       	callq  400e40 <connect@plt>
  402468:	85 c0                	test   %eax,%eax
  40246a:	0f 88 dc 02 00 00    	js     40274c <submitr+0x3b4>
  402470:	48 c7 c6 ff ff ff ff 	mov    $0xffffffffffffffff,%rsi
  402477:	b8 00 00 00 00       	mov    $0x0,%eax
  40247c:	48 89 f1             	mov    %rsi,%rcx
  40247f:	4c 89 ef             	mov    %r13,%rdi
  402482:	f2 ae                	repnz scas %es:(%rdi),%al
  402484:	48 89 ca             	mov    %rcx,%rdx
  402487:	48 f7 d2             	not    %rdx
  40248a:	48 89 f1             	mov    %rsi,%rcx
  40248d:	4c 89 ff             	mov    %r15,%rdi
  402490:	f2 ae                	repnz scas %es:(%rdi),%al
  402492:	48 f7 d1             	not    %rcx
  402495:	49 89 c8             	mov    %rcx,%r8
  402498:	48 89 f1             	mov    %rsi,%rcx
  40249b:	4c 89 f7             	mov    %r14,%rdi
  40249e:	f2 ae                	repnz scas %es:(%rdi),%al
  4024a0:	48 f7 d1             	not    %rcx
  4024a3:	4d 8d 44 08 fe       	lea    -0x2(%r8,%rcx,1),%r8
  4024a8:	48 89 f1             	mov    %rsi,%rcx
  4024ab:	48 8b 7c 24 08       	mov    0x8(%rsp),%rdi
  4024b0:	f2 ae                	repnz scas %es:(%rdi),%al
  4024b2:	48 89 c8             	mov    %rcx,%rax
  4024b5:	48 f7 d0             	not    %rax
  4024b8:	49 8d 4c 00 ff       	lea    -0x1(%r8,%rax,1),%rcx
  4024bd:	48 8d 44 52 fd       	lea    -0x3(%rdx,%rdx,2),%rax
  4024c2:	48 8d 84 01 80 00 00 	lea    0x80(%rcx,%rax,1),%rax
  4024c9:	00 
  4024ca:	48 3d 00 20 00 00    	cmp    $0x2000,%rax
  4024d0:	0f 87 d0 02 00 00    	ja     4027a6 <submitr+0x40e>
  4024d6:	48 8d b4 24 40 40 00 	lea    0x4040(%rsp),%rsi
  4024dd:	00 
  4024de:	b9 00 04 00 00       	mov    $0x400,%ecx
  4024e3:	b8 00 00 00 00       	mov    $0x0,%eax
  4024e8:	48 89 f7             	mov    %rsi,%rdi
  4024eb:	f3 48 ab             	rep stos %rax,%es:(%rdi)
  4024ee:	4c 89 ef             	mov    %r13,%rdi
  4024f1:	e8 91 fd ff ff       	callq  402287 <urlencode>
  4024f6:	85 c0                	test   %eax,%eax
  4024f8:	0f 88 1b 03 00 00    	js     402819 <submitr+0x481>
  4024fe:	4c 8d ac 24 40 20 00 	lea    0x2040(%rsp),%r13
  402505:	00 
  402506:	41 54                	push   %r12
  402508:	48 8d 84 24 48 40 00 	lea    0x4048(%rsp),%rax
  40250f:	00 
  402510:	50                   	push   %rax
  402511:	4d 89 f9             	mov    %r15,%r9
  402514:	4d 89 f0             	mov    %r14,%r8
  402517:	b9 e8 35 40 00       	mov    $0x4035e8,%ecx
  40251c:	ba 00 20 00 00       	mov    $0x2000,%edx
  402521:	be 01 00 00 00       	mov    $0x1,%esi
  402526:	4c 89 ef             	mov    %r13,%rdi
  402529:	b8 00 00 00 00       	mov    $0x0,%eax
  40252e:	e8 2d e9 ff ff       	callq  400e60 <__sprintf_chk@plt>
  402533:	48 c7 c1 ff ff ff ff 	mov    $0xffffffffffffffff,%rcx
  40253a:	b8 00 00 00 00       	mov    $0x0,%eax
  40253f:	4c 89 ef             	mov    %r13,%rdi
  402542:	f2 ae                	repnz scas %es:(%rdi),%al
  402544:	48 89 ca             	mov    %rcx,%rdx
  402547:	48 f7 d2             	not    %rdx
  40254a:	48 8d 52 ff          	lea    -0x1(%rdx),%rdx
  40254e:	4c 89 ee             	mov    %r13,%rsi
  402551:	89 df                	mov    %ebx,%edi
  402553:	e8 a2 fb ff ff       	callq  4020fa <rio_writen>
  402558:	48 83 c4 10          	add    $0x10,%rsp
  40255c:	48 85 c0             	test   %rax,%rax
  40255f:	0f 88 3f 03 00 00    	js     4028a4 <submitr+0x50c>
  402565:	89 de                	mov    %ebx,%esi
  402567:	48 8d 7c 24 30       	lea    0x30(%rsp),%rdi
  40256c:	e8 49 fb ff ff       	callq  4020ba <rio_readinitb>
  402571:	ba 00 20 00 00       	mov    $0x2000,%edx
  402576:	48 8d b4 24 40 20 00 	lea    0x2040(%rsp),%rsi
  40257d:	00 
  40257e:	48 8d 7c 24 30       	lea    0x30(%rsp),%rdi
  402583:	e8 5b fc ff ff       	callq  4021e3 <rio_readlineb>
  402588:	48 85 c0             	test   %rax,%rax
  40258b:	0f 8e 82 03 00 00    	jle    402913 <submitr+0x57b>
  402591:	4c 8d 84 24 40 80 00 	lea    0x8040(%rsp),%r8
  402598:	00 
  402599:	48 8d 4c 24 1c       	lea    0x1c(%rsp),%rcx
  40259e:	48 8d 94 24 40 60 00 	lea    0x6040(%rsp),%rdx
  4025a5:	00 
  4025a6:	be 5f 36 40 00       	mov    $0x40365f,%esi
  4025ab:	48 8d bc 24 40 20 00 	lea    0x2040(%rsp),%rdi
  4025b2:	00 
  4025b3:	b8 00 00 00 00       	mov    $0x0,%eax
  4025b8:	e8 03 e8 ff ff       	callq  400dc0 <__isoc99_sscanf@plt>
  4025bd:	48 8d b4 24 40 20 00 	lea    0x2040(%rsp),%rsi
  4025c4:	00 
  4025c5:	bf 76 36 40 00       	mov    $0x403676,%edi
  4025ca:	b9 03 00 00 00       	mov    $0x3,%ecx
  4025cf:	f3 a6                	repz cmpsb %es:(%rdi),%ds:(%rsi)
  4025d1:	0f 97 c0             	seta   %al
  4025d4:	1c 00                	sbb    $0x0,%al
  4025d6:	84 c0                	test   %al,%al
  4025d8:	0f 84 b3 03 00 00    	je     402991 <submitr+0x5f9>
  4025de:	ba 00 20 00 00       	mov    $0x2000,%edx
  4025e3:	48 8d b4 24 40 20 00 	lea    0x2040(%rsp),%rsi
  4025ea:	00 
  4025eb:	48 8d 7c 24 30       	lea    0x30(%rsp),%rdi
  4025f0:	e8 ee fb ff ff       	callq  4021e3 <rio_readlineb>
  4025f5:	48 85 c0             	test   %rax,%rax
  4025f8:	7f c3                	jg     4025bd <submitr+0x225>
  4025fa:	48 b8 45 72 72 6f 72 	movabs $0x43203a726f727245,%rax
  402601:	3a 20 43 
  402604:	48 ba 6c 69 65 6e 74 	movabs $0x6e7520746e65696c,%rdx
  40260b:	20 75 6e 
  40260e:	48 89 45 00          	mov    %rax,0x0(%rbp)
  402612:	48 89 55 08          	mov    %rdx,0x8(%rbp)
  402616:	48 b8 61 62 6c 65 20 	movabs $0x206f7420656c6261,%rax
  40261d:	74 6f 20 
  402620:	48 ba 72 65 61 64 20 	movabs $0x6165682064616572,%rdx
  402627:	68 65 61 
  40262a:	48 89 45 10          	mov    %rax,0x10(%rbp)
  40262e:	48 89 55 18          	mov    %rdx,0x18(%rbp)
  402632:	48 b8 64 65 72 73 20 	movabs $0x6f72662073726564,%rax
  402639:	66 72 6f 
  40263c:	48 ba 6d 20 74 68 65 	movabs $0x657220656874206d,%rdx
  402643:	20 72 65 
  402646:	48 89 45 20          	mov    %rax,0x20(%rbp)
  40264a:	48 89 55 28          	mov    %rdx,0x28(%rbp)
  40264e:	48 b8 73 75 6c 74 20 	movabs $0x72657320746c7573,%rax
  402655:	73 65 72 
  402658:	48 89 45 30          	mov    %rax,0x30(%rbp)
  40265c:	c7 45 38 76 65 72 00 	movl   $0x726576,0x38(%rbp)
  402663:	89 df                	mov    %ebx,%edi
  402665:	e8 b6 e6 ff ff       	callq  400d20 <close@plt>
  40266a:	b8 ff ff ff ff       	mov    $0xffffffff,%eax
  40266f:	48 8b 9c 24 48 a0 00 	mov    0xa048(%rsp),%rbx
  402676:	00 
  402677:	64 48 33 1c 25 28 00 	xor    %fs:0x28,%rbx
  40267e:	00 00 
  402680:	0f 85 76 04 00 00    	jne    402afc <submitr+0x764>
  402686:	48 81 c4 58 a0 00 00 	add    $0xa058,%rsp
  40268d:	5b                   	pop    %rbx
  40268e:	5d                   	pop    %rbp
  40268f:	41 5c                	pop    %r12
  402691:	41 5d                	pop    %r13
  402693:	41 5e                	pop    %r14
  402695:	41 5f                	pop    %r15
  402697:	c3                   	retq   
  402698:	48 b8 45 72 72 6f 72 	movabs $0x43203a726f727245,%rax
  40269f:	3a 20 43 
  4026a2:	48 ba 6c 69 65 6e 74 	movabs $0x6e7520746e65696c,%rdx
  4026a9:	20 75 6e 
  4026ac:	48 89 45 00          	mov    %rax,0x0(%rbp)
  4026b0:	48 89 55 08          	mov    %rdx,0x8(%rbp)
  4026b4:	48 b8 61 62 6c 65 20 	movabs $0x206f7420656c6261,%rax
  4026bb:	74 6f 20 
  4026be:	48 ba 63 72 65 61 74 	movabs $0x7320657461657263,%rdx
  4026c5:	65 20 73 
  4026c8:	48 89 45 10          	mov    %rax,0x10(%rbp)
  4026cc:	48 89 55 18          	mov    %rdx,0x18(%rbp)
  4026d0:	c7 45 20 6f 63 6b 65 	movl   $0x656b636f,0x20(%rbp)
  4026d7:	66 c7 45 24 74 00    	movw   $0x74,0x24(%rbp)
  4026dd:	b8 ff ff ff ff       	mov    $0xffffffff,%eax
  4026e2:	eb 8b                	jmp    40266f <submitr+0x2d7>
  4026e4:	48 b8 45 72 72 6f 72 	movabs $0x44203a726f727245,%rax
  4026eb:	3a 20 44 
  4026ee:	48 ba 4e 53 20 69 73 	movabs $0x6e7520736920534e,%rdx
  4026f5:	20 75 6e 
  4026f8:	48 89 45 00          	mov    %rax,0x0(%rbp)
  4026fc:	48 89 55 08          	mov    %rdx,0x8(%rbp)
  402700:	48 b8 61 62 6c 65 20 	movabs $0x206f7420656c6261,%rax
  402707:	74 6f 20 
  40270a:	48 ba 72 65 73 6f 6c 	movabs $0x2065766c6f736572,%rdx
  402711:	76 65 20 
  402714:	48 89 45 10          	mov    %rax,0x10(%rbp)
  402718:	48 89 55 18          	mov    %rdx,0x18(%rbp)
  40271c:	48 b8 73 65 72 76 65 	movabs $0x6120726576726573,%rax
  402723:	72 20 61 
  402726:	48 89 45 20          	mov    %rax,0x20(%rbp)
  40272a:	c7 45 28 64 64 72 65 	movl   $0x65726464,0x28(%rbp)
  402731:	66 c7 45 2c 73 73    	movw   $0x7373,0x2c(%rbp)
  402737:	c6 45 2e 00          	movb   $0x0,0x2e(%rbp)
  40273b:	89 df                	mov    %ebx,%edi
  40273d:	e8 de e5 ff ff       	callq  400d20 <close@plt>
  402742:	b8 ff ff ff ff       	mov    $0xffffffff,%eax
  402747:	e9 23 ff ff ff       	jmpq   40266f <submitr+0x2d7>
  40274c:	48 b8 45 72 72 6f 72 	movabs $0x55203a726f727245,%rax
  402753:	3a 20 55 
  402756:	48 ba 6e 61 62 6c 65 	movabs $0x6f7420656c62616e,%rdx
  40275d:	20 74 6f 
  402760:	48 89 45 00          	mov    %rax,0x0(%rbp)
  402764:	48 89 55 08          	mov    %rdx,0x8(%rbp)
  402768:	48 b8 20 63 6f 6e 6e 	movabs $0x7463656e6e6f6320,%rax
  40276f:	65 63 74 
  402772:	48 ba 20 74 6f 20 74 	movabs $0x20656874206f7420,%rdx
  402779:	68 65 20 
  40277c:	48 89 45 10          	mov    %rax,0x10(%rbp)
  402780:	48 89 55 18          	mov    %rdx,0x18(%rbp)
  402784:	c7 45 20 73 65 72 76 	movl   $0x76726573,0x20(%rbp)
  40278b:	66 c7 45 24 65 72    	movw   $0x7265,0x24(%rbp)
  402791:	c6 45 26 00          	movb   $0x0,0x26(%rbp)
  402795:	89 df                	mov    %ebx,%edi
  402797:	e8 84 e5 ff ff       	callq  400d20 <close@plt>
  40279c:	b8 ff ff ff ff       	mov    $0xffffffff,%eax
  4027a1:	e9 c9 fe ff ff       	jmpq   40266f <submitr+0x2d7>
  4027a6:	48 b8 45 72 72 6f 72 	movabs $0x52203a726f727245,%rax
  4027ad:	3a 20 52 
  4027b0:	48 ba 65 73 75 6c 74 	movabs $0x747320746c757365,%rdx
  4027b7:	20 73 74 
  4027ba:	48 89 45 00          	mov    %rax,0x0(%rbp)
  4027be:	48 89 55 08          	mov    %rdx,0x8(%rbp)
  4027c2:	48 b8 72 69 6e 67 20 	movabs $0x6f6f7420676e6972,%rax
  4027c9:	74 6f 6f 
  4027cc:	48 ba 20 6c 61 72 67 	movabs $0x202e656772616c20,%rdx
  4027d3:	65 2e 20 
  4027d6:	48 89 45 10          	mov    %rax,0x10(%rbp)
  4027da:	48 89 55 18          	mov    %rdx,0x18(%rbp)
  4027de:	48 b8 49 6e 63 72 65 	movabs $0x6573616572636e49,%rax
  4027e5:	61 73 65 
  4027e8:	48 ba 20 53 55 42 4d 	movabs $0x5254494d42555320,%rdx
  4027ef:	49 54 52 
  4027f2:	48 89 45 20          	mov    %rax,0x20(%rbp)
  4027f6:	48 89 55 28          	mov    %rdx,0x28(%rbp)
  4027fa:	48 b8 5f 4d 41 58 42 	movabs $0x46554258414d5f,%rax
  402801:	55 46 00 
  402804:	48 89 45 30          	mov    %rax,0x30(%rbp)
  402808:	89 df                	mov    %ebx,%edi
  40280a:	e8 11 e5 ff ff       	callq  400d20 <close@plt>
  40280f:	b8 ff ff ff ff       	mov    $0xffffffff,%eax
  402814:	e9 56 fe ff ff       	jmpq   40266f <submitr+0x2d7>
  402819:	48 b8 45 72 72 6f 72 	movabs $0x52203a726f727245,%rax
  402820:	3a 20 52 
  402823:	48 ba 65 73 75 6c 74 	movabs $0x747320746c757365,%rdx
  40282a:	20 73 74 
  40282d:	48 89 45 00          	mov    %rax,0x0(%rbp)
  402831:	48 89 55 08          	mov    %rdx,0x8(%rbp)
  402835:	48 b8 72 69 6e 67 20 	movabs $0x6e6f6320676e6972,%rax
  40283c:	63 6f 6e 
  40283f:	48 ba 74 61 69 6e 73 	movabs $0x6e6120736e696174,%rdx
  402846:	20 61 6e 
  402849:	48 89 45 10          	mov    %rax,0x10(%rbp)
  40284d:	48 89 55 18          	mov    %rdx,0x18(%rbp)
  402851:	48 b8 20 69 6c 6c 65 	movabs $0x6c6167656c6c6920,%rax
  402858:	67 61 6c 
  40285b:	48 ba 20 6f 72 20 75 	movabs $0x72706e7520726f20,%rdx
  402862:	6e 70 72 
  402865:	48 89 45 20          	mov    %rax,0x20(%rbp)
  402869:	48 89 55 28          	mov    %rdx,0x28(%rbp)
  40286d:	48 b8 69 6e 74 61 62 	movabs $0x20656c6261746e69,%rax
  402874:	6c 65 20 
  402877:	48 ba 63 68 61 72 61 	movabs $0x6574636172616863,%rdx
  40287e:	63 74 65 
  402881:	48 89 45 30          	mov    %rax,0x30(%rbp)
  402885:	48 89 55 38          	mov    %rdx,0x38(%rbp)
  402889:	66 c7 45 40 72 2e    	movw   $0x2e72,0x40(%rbp)
  40288f:	c6 45 42 00          	movb   $0x0,0x42(%rbp)
  402893:	89 df                	mov    %ebx,%edi
  402895:	e8 86 e4 ff ff       	callq  400d20 <close@plt>
  40289a:	b8 ff ff ff ff       	mov    $0xffffffff,%eax
  40289f:	e9 cb fd ff ff       	jmpq   40266f <submitr+0x2d7>
  4028a4:	48 b8 45 72 72 6f 72 	movabs $0x43203a726f727245,%rax
  4028ab:	3a 20 43 
  4028ae:	48 ba 6c 69 65 6e 74 	movabs $0x6e7520746e65696c,%rdx
  4028b5:	20 75 6e 
  4028b8:	48 89 45 00          	mov    %rax,0x0(%rbp)
  4028bc:	48 89 55 08          	mov    %rdx,0x8(%rbp)
  4028c0:	48 b8 61 62 6c 65 20 	movabs $0x206f7420656c6261,%rax
  4028c7:	74 6f 20 
  4028ca:	48 ba 77 72 69 74 65 	movabs $0x6f74206574697277,%rdx
  4028d1:	20 74 6f 
  4028d4:	48 89 45 10          	mov    %rax,0x10(%rbp)
  4028d8:	48 89 55 18          	mov    %rdx,0x18(%rbp)
  4028dc:	48 b8 20 74 68 65 20 	movabs $0x7365722065687420,%rax
  4028e3:	72 65 73 
  4028e6:	48 ba 75 6c 74 20 73 	movabs $0x7672657320746c75,%rdx
  4028ed:	65 72 76 
  4028f0:	48 89 45 20          	mov    %rax,0x20(%rbp)
  4028f4:	48 89 55 28          	mov    %rdx,0x28(%rbp)
  4028f8:	66 c7 45 30 65 72    	movw   $0x7265,0x30(%rbp)
  4028fe:	c6 45 32 00          	movb   $0x0,0x32(%rbp)
  402902:	89 df                	mov    %ebx,%edi
  402904:	e8 17 e4 ff ff       	callq  400d20 <close@plt>
  402909:	b8 ff ff ff ff       	mov    $0xffffffff,%eax
  40290e:	e9 5c fd ff ff       	jmpq   40266f <submitr+0x2d7>
  402913:	48 b8 45 72 72 6f 72 	movabs $0x43203a726f727245,%rax
  40291a:	3a 20 43 
  40291d:	48 ba 6c 69 65 6e 74 	movabs $0x6e7520746e65696c,%rdx
  402924:	20 75 6e 
  402927:	48 89 45 00          	mov    %rax,0x0(%rbp)
  40292b:	48 89 55 08          	mov    %rdx,0x8(%rbp)
  40292f:	48 b8 61 62 6c 65 20 	movabs $0x206f7420656c6261,%rax
  402936:	74 6f 20 
  402939:	48 ba 72 65 61 64 20 	movabs $0x7269662064616572,%rdx
  402940:	66 69 72 
  402943:	48 89 45 10          	mov    %rax,0x10(%rbp)
  402947:	48 89 55 18          	mov    %rdx,0x18(%rbp)
  40294b:	48 b8 73 74 20 68 65 	movabs $0x6564616568207473,%rax
  402952:	61 64 65 
  402955:	48 ba 72 20 66 72 6f 	movabs $0x72206d6f72662072,%rdx
  40295c:	6d 20 72 
  40295f:	48 89 45 20          	mov    %rax,0x20(%rbp)
  402963:	48 89 55 28          	mov    %rdx,0x28(%rbp)
  402967:	48 b8 65 73 75 6c 74 	movabs $0x657320746c757365,%rax
  40296e:	20 73 65 
  402971:	48 89 45 30          	mov    %rax,0x30(%rbp)
  402975:	c7 45 38 72 76 65 72 	movl   $0x72657672,0x38(%rbp)
  40297c:	c6 45 3c 00          	movb   $0x0,0x3c(%rbp)
  402980:	89 df                	mov    %ebx,%edi
  402982:	e8 99 e3 ff ff       	callq  400d20 <close@plt>
  402987:	b8 ff ff ff ff       	mov    $0xffffffff,%eax
  40298c:	e9 de fc ff ff       	jmpq   40266f <submitr+0x2d7>
  402991:	ba 00 20 00 00       	mov    $0x2000,%edx
  402996:	48 8d b4 24 40 20 00 	lea    0x2040(%rsp),%rsi
  40299d:	00 
  40299e:	48 8d 7c 24 30       	lea    0x30(%rsp),%rdi
  4029a3:	e8 3b f8 ff ff       	callq  4021e3 <rio_readlineb>
  4029a8:	48 85 c0             	test   %rax,%rax
  4029ab:	0f 8e 90 00 00 00    	jle    402a41 <submitr+0x6a9>
  4029b1:	44 8b 44 24 1c       	mov    0x1c(%rsp),%r8d
  4029b6:	41 81 f8 c8 00 00 00 	cmp    $0xc8,%r8d
  4029bd:	0f 85 02 01 00 00    	jne    402ac5 <submitr+0x72d>
  4029c3:	48 8d b4 24 40 20 00 	lea    0x2040(%rsp),%rsi
  4029ca:	00 
  4029cb:	48 89 ef             	mov    %rbp,%rdi
  4029ce:	e8 dd e2 ff ff       	callq  400cb0 <strcpy@plt>
  4029d3:	89 df                	mov    %ebx,%edi
  4029d5:	e8 46 e3 ff ff       	callq  400d20 <close@plt>
  4029da:	bf 70 36 40 00       	mov    $0x403670,%edi
  4029df:	b9 04 00 00 00       	mov    $0x4,%ecx
  4029e4:	48 89 ee             	mov    %rbp,%rsi
  4029e7:	f3 a6                	repz cmpsb %es:(%rdi),%ds:(%rsi)
  4029e9:	0f 97 c0             	seta   %al
  4029ec:	1c 00                	sbb    $0x0,%al
  4029ee:	0f be c0             	movsbl %al,%eax
  4029f1:	85 c0                	test   %eax,%eax
  4029f3:	0f 84 76 fc ff ff    	je     40266f <submitr+0x2d7>
  4029f9:	bf 74 36 40 00       	mov    $0x403674,%edi
  4029fe:	b9 05 00 00 00       	mov    $0x5,%ecx
  402a03:	48 89 ee             	mov    %rbp,%rsi
  402a06:	f3 a6                	repz cmpsb %es:(%rdi),%ds:(%rsi)
  402a08:	0f 97 c0             	seta   %al
  402a0b:	1c 00                	sbb    $0x0,%al
  402a0d:	0f be c0             	movsbl %al,%eax
  402a10:	85 c0                	test   %eax,%eax
  402a12:	0f 84 57 fc ff ff    	je     40266f <submitr+0x2d7>
  402a18:	bf 79 36 40 00       	mov    $0x403679,%edi
  402a1d:	b9 03 00 00 00       	mov    $0x3,%ecx
  402a22:	48 89 ee             	mov    %rbp,%rsi
  402a25:	f3 a6                	repz cmpsb %es:(%rdi),%ds:(%rsi)
  402a27:	0f 97 c0             	seta   %al
  402a2a:	1c 00                	sbb    $0x0,%al
  402a2c:	0f be c0             	movsbl %al,%eax
  402a2f:	85 c0                	test   %eax,%eax
  402a31:	0f 84 38 fc ff ff    	je     40266f <submitr+0x2d7>
  402a37:	b8 ff ff ff ff       	mov    $0xffffffff,%eax
  402a3c:	e9 2e fc ff ff       	jmpq   40266f <submitr+0x2d7>
  402a41:	48 b8 45 72 72 6f 72 	movabs $0x43203a726f727245,%rax
  402a48:	3a 20 43 
  402a4b:	48 ba 6c 69 65 6e 74 	movabs $0x6e7520746e65696c,%rdx
  402a52:	20 75 6e 
  402a55:	48 89 45 00          	mov    %rax,0x0(%rbp)
  402a59:	48 89 55 08          	mov    %rdx,0x8(%rbp)
  402a5d:	48 b8 61 62 6c 65 20 	movabs $0x206f7420656c6261,%rax
  402a64:	74 6f 20 
  402a67:	48 ba 72 65 61 64 20 	movabs $0x6174732064616572,%rdx
  402a6e:	73 74 61 
  402a71:	48 89 45 10          	mov    %rax,0x10(%rbp)
  402a75:	48 89 55 18          	mov    %rdx,0x18(%rbp)
  402a79:	48 b8 74 75 73 20 6d 	movabs $0x7373656d20737574,%rax
  402a80:	65 73 73 
  402a83:	48 ba 61 67 65 20 66 	movabs $0x6d6f726620656761,%rdx
  402a8a:	72 6f 6d 
  402a8d:	48 89 45 20          	mov    %rax,0x20(%rbp)
  402a91:	48 89 55 28          	mov    %rdx,0x28(%rbp)
  402a95:	48 b8 20 72 65 73 75 	movabs $0x20746c7573657220,%rax
  402a9c:	6c 74 20 
  402a9f:	48 89 45 30          	mov    %rax,0x30(%rbp)
  402aa3:	c7 45 38 73 65 72 76 	movl   $0x76726573,0x38(%rbp)
  402aaa:	66 c7 45 3c 65 72    	movw   $0x7265,0x3c(%rbp)
  402ab0:	c6 45 3e 00          	movb   $0x0,0x3e(%rbp)
  402ab4:	89 df                	mov    %ebx,%edi
  402ab6:	e8 65 e2 ff ff       	callq  400d20 <close@plt>
  402abb:	b8 ff ff ff ff       	mov    $0xffffffff,%eax
  402ac0:	e9 aa fb ff ff       	jmpq   40266f <submitr+0x2d7>
  402ac5:	4c 8d 8c 24 40 80 00 	lea    0x8040(%rsp),%r9
  402acc:	00 
  402acd:	b9 28 36 40 00       	mov    $0x403628,%ecx
  402ad2:	48 c7 c2 ff ff ff ff 	mov    $0xffffffffffffffff,%rdx
  402ad9:	be 01 00 00 00       	mov    $0x1,%esi
  402ade:	48 89 ef             	mov    %rbp,%rdi
  402ae1:	b8 00 00 00 00       	mov    $0x0,%eax
  402ae6:	e8 75 e3 ff ff       	callq  400e60 <__sprintf_chk@plt>
  402aeb:	89 df                	mov    %ebx,%edi
  402aed:	e8 2e e2 ff ff       	callq  400d20 <close@plt>
  402af2:	b8 ff ff ff ff       	mov    $0xffffffff,%eax
  402af7:	e9 73 fb ff ff       	jmpq   40266f <submitr+0x2d7>
  402afc:	e8 df e1 ff ff       	callq  400ce0 <__stack_chk_fail@plt>

0000000000402b01 <init_timeout>:
  402b01:	85 ff                	test   %edi,%edi
  402b03:	74 26                	je     402b2b <init_timeout+0x2a>
  402b05:	53                   	push   %rbx
  402b06:	89 fb                	mov    %edi,%ebx
  402b08:	85 ff                	test   %edi,%edi
  402b0a:	78 18                	js     402b24 <init_timeout+0x23>
  402b0c:	be cc 20 40 00       	mov    $0x4020cc,%esi
  402b11:	bf 0e 00 00 00       	mov    $0xe,%edi
  402b16:	e8 25 e2 ff ff       	callq  400d40 <signal@plt>
  402b1b:	89 df                	mov    %ebx,%edi
  402b1d:	e8 ee e1 ff ff       	callq  400d10 <alarm@plt>
  402b22:	5b                   	pop    %rbx
  402b23:	c3                   	retq   
  402b24:	bb 00 00 00 00       	mov    $0x0,%ebx
  402b29:	eb e1                	jmp    402b0c <init_timeout+0xb>
  402b2b:	f3 c3                	repz retq 

0000000000402b2d <init_driver>:
  402b2d:	55                   	push   %rbp
  402b2e:	53                   	push   %rbx
  402b2f:	48 83 ec 28          	sub    $0x28,%rsp
  402b33:	48 89 fd             	mov    %rdi,%rbp
  402b36:	64 48 8b 04 25 28 00 	mov    %fs:0x28,%rax
  402b3d:	00 00 
  402b3f:	48 89 44 24 18       	mov    %rax,0x18(%rsp)
  402b44:	31 c0                	xor    %eax,%eax
  402b46:	be 01 00 00 00       	mov    $0x1,%esi
  402b4b:	bf 0d 00 00 00       	mov    $0xd,%edi
  402b50:	e8 eb e1 ff ff       	callq  400d40 <signal@plt>
  402b55:	be 01 00 00 00       	mov    $0x1,%esi
  402b5a:	bf 1d 00 00 00       	mov    $0x1d,%edi
  402b5f:	e8 dc e1 ff ff       	callq  400d40 <signal@plt>
  402b64:	be 01 00 00 00       	mov    $0x1,%esi
  402b69:	bf 1d 00 00 00       	mov    $0x1d,%edi
  402b6e:	e8 cd e1 ff ff       	callq  400d40 <signal@plt>
  402b73:	ba 00 00 00 00       	mov    $0x0,%edx
  402b78:	be 01 00 00 00       	mov    $0x1,%esi
  402b7d:	bf 02 00 00 00       	mov    $0x2,%edi
  402b82:	e8 e9 e2 ff ff       	callq  400e70 <socket@plt>
  402b87:	85 c0                	test   %eax,%eax
  402b89:	0f 88 9c 00 00 00    	js     402c2b <init_driver+0xfe>
  402b8f:	89 c3                	mov    %eax,%ebx
  402b91:	bf 7c 36 40 00       	mov    $0x40367c,%edi
  402b96:	e8 b5 e1 ff ff       	callq  400d50 <gethostbyname@plt>
  402b9b:	48 85 c0             	test   %rax,%rax
  402b9e:	0f 84 d3 00 00 00    	je     402c77 <init_driver+0x14a>
  402ba4:	48 c7 44 24 02 00 00 	movq   $0x0,0x2(%rsp)
  402bab:	00 00 
  402bad:	c7 44 24 0a 00 00 00 	movl   $0x0,0xa(%rsp)
  402bb4:	00 
  402bb5:	66 c7 44 24 0e 00 00 	movw   $0x0,0xe(%rsp)
  402bbc:	66 c7 04 24 02 00    	movw   $0x2,(%rsp)
  402bc2:	48 63 50 14          	movslq 0x14(%rax),%rdx
  402bc6:	48 8b 40 18          	mov    0x18(%rax),%rax
  402bca:	48 8b 30             	mov    (%rax),%rsi
  402bcd:	48 8d 7c 24 04       	lea    0x4(%rsp),%rdi
  402bd2:	b9 0c 00 00 00       	mov    $0xc,%ecx
  402bd7:	e8 84 e1 ff ff       	callq  400d60 <__memmove_chk@plt>
  402bdc:	66 c7 44 24 02 3c 9a 	movw   $0x9a3c,0x2(%rsp)
  402be3:	ba 10 00 00 00       	mov    $0x10,%edx
  402be8:	48 89 e6             	mov    %rsp,%rsi
  402beb:	89 df                	mov    %ebx,%edi
  402bed:	e8 4e e2 ff ff       	callq  400e40 <connect@plt>
  402bf2:	85 c0                	test   %eax,%eax
  402bf4:	0f 88 e5 00 00 00    	js     402cdf <init_driver+0x1b2>
  402bfa:	89 df                	mov    %ebx,%edi
  402bfc:	e8 1f e1 ff ff       	callq  400d20 <close@plt>
  402c01:	66 c7 45 00 4f 4b    	movw   $0x4b4f,0x0(%rbp)
  402c07:	c6 45 02 00          	movb   $0x0,0x2(%rbp)
  402c0b:	b8 00 00 00 00       	mov    $0x0,%eax
  402c10:	48 8b 4c 24 18       	mov    0x18(%rsp),%rcx
  402c15:	64 48 33 0c 25 28 00 	xor    %fs:0x28,%rcx
  402c1c:	00 00 
  402c1e:	0f 85 0e 01 00 00    	jne    402d32 <init_driver+0x205>
  402c24:	48 83 c4 28          	add    $0x28,%rsp
  402c28:	5b                   	pop    %rbx
  402c29:	5d                   	pop    %rbp
  402c2a:	c3                   	retq   
  402c2b:	48 b8 45 72 72 6f 72 	movabs $0x43203a726f727245,%rax
  402c32:	3a 20 43 
  402c35:	48 ba 6c 69 65 6e 74 	movabs $0x6e7520746e65696c,%rdx
  402c3c:	20 75 6e 
  402c3f:	48 89 45 00          	mov    %rax,0x0(%rbp)
  402c43:	48 89 55 08          	mov    %rdx,0x8(%rbp)
  402c47:	48 b8 61 62 6c 65 20 	movabs $0x206f7420656c6261,%rax
  402c4e:	74 6f 20 
  402c51:	48 ba 63 72 65 61 74 	movabs $0x7320657461657263,%rdx
  402c58:	65 20 73 
  402c5b:	48 89 45 10          	mov    %rax,0x10(%rbp)
  402c5f:	48 89 55 18          	mov    %rdx,0x18(%rbp)
  402c63:	c7 45 20 6f 63 6b 65 	movl   $0x656b636f,0x20(%rbp)
  402c6a:	66 c7 45 24 74 00    	movw   $0x74,0x24(%rbp)
  402c70:	b8 ff ff ff ff       	mov    $0xffffffff,%eax
  402c75:	eb 99                	jmp    402c10 <init_driver+0xe3>
  402c77:	48 b8 45 72 72 6f 72 	movabs $0x44203a726f727245,%rax
  402c7e:	3a 20 44 
  402c81:	48 ba 4e 53 20 69 73 	movabs $0x6e7520736920534e,%rdx
  402c88:	20 75 6e 
  402c8b:	48 89 45 00          	mov    %rax,0x0(%rbp)
  402c8f:	48 89 55 08          	mov    %rdx,0x8(%rbp)
  402c93:	48 b8 61 62 6c 65 20 	movabs $0x206f7420656c6261,%rax
  402c9a:	74 6f 20 
  402c9d:	48 ba 72 65 73 6f 6c 	movabs $0x2065766c6f736572,%rdx
  402ca4:	76 65 20 
  402ca7:	48 89 45 10          	mov    %rax,0x10(%rbp)
  402cab:	48 89 55 18          	mov    %rdx,0x18(%rbp)
  402caf:	48 b8 73 65 72 76 65 	movabs $0x6120726576726573,%rax
  402cb6:	72 20 61 
  402cb9:	48 89 45 20          	mov    %rax,0x20(%rbp)
  402cbd:	c7 45 28 64 64 72 65 	movl   $0x65726464,0x28(%rbp)
  402cc4:	66 c7 45 2c 73 73    	movw   $0x7373,0x2c(%rbp)
  402cca:	c6 45 2e 00          	movb   $0x0,0x2e(%rbp)
  402cce:	89 df                	mov    %ebx,%edi
  402cd0:	e8 4b e0 ff ff       	callq  400d20 <close@plt>
  402cd5:	b8 ff ff ff ff       	mov    $0xffffffff,%eax
  402cda:	e9 31 ff ff ff       	jmpq   402c10 <init_driver+0xe3>
  402cdf:	48 b8 45 72 72 6f 72 	movabs $0x55203a726f727245,%rax
  402ce6:	3a 20 55 
  402ce9:	48 ba 6e 61 62 6c 65 	movabs $0x6f7420656c62616e,%rdx
  402cf0:	20 74 6f 
  402cf3:	48 89 45 00          	mov    %rax,0x0(%rbp)
  402cf7:	48 89 55 08          	mov    %rdx,0x8(%rbp)
  402cfb:	48 b8 20 63 6f 6e 6e 	movabs $0x7463656e6e6f6320,%rax
  402d02:	65 63 74 
  402d05:	48 ba 20 74 6f 20 73 	movabs $0x76726573206f7420,%rdx
  402d0c:	65 72 76 
  402d0f:	48 89 45 10          	mov    %rax,0x10(%rbp)
  402d13:	48 89 55 18          	mov    %rdx,0x18(%rbp)
  402d17:	66 c7 45 20 65 72    	movw   $0x7265,0x20(%rbp)
  402d1d:	c6 45 22 00          	movb   $0x0,0x22(%rbp)
  402d21:	89 df                	mov    %ebx,%edi
  402d23:	e8 f8 df ff ff       	callq  400d20 <close@plt>
  402d28:	b8 ff ff ff ff       	mov    $0xffffffff,%eax
  402d2d:	e9 de fe ff ff       	jmpq   402c10 <init_driver+0xe3>
  402d32:	e8 a9 df ff ff       	callq  400ce0 <__stack_chk_fail@plt>

0000000000402d37 <driver_post>:
  402d37:	53                   	push   %rbx
  402d38:	4c 89 cb             	mov    %r9,%rbx
  402d3b:	45 85 c0             	test   %r8d,%r8d
  402d3e:	75 18                	jne    402d58 <driver_post+0x21>
  402d40:	48 85 ff             	test   %rdi,%rdi
  402d43:	74 05                	je     402d4a <driver_post+0x13>
  402d45:	80 3f 00             	cmpb   $0x0,(%rdi)
  402d48:	75 35                	jne    402d7f <driver_post+0x48>
  402d4a:	66 c7 03 4f 4b       	movw   $0x4b4f,(%rbx)
  402d4f:	c6 43 02 00          	movb   $0x0,0x2(%rbx)
  402d53:	44 89 c0             	mov    %r8d,%eax
  402d56:	5b                   	pop    %rbx
  402d57:	c3                   	retq   
  402d58:	48 89 ca             	mov    %rcx,%rdx
  402d5b:	be 94 36 40 00       	mov    $0x403694,%esi
  402d60:	bf 01 00 00 00       	mov    $0x1,%edi
  402d65:	b8 00 00 00 00       	mov    $0x0,%eax
  402d6a:	e8 71 e0 ff ff       	callq  400de0 <__printf_chk@plt>
  402d6f:	66 c7 03 4f 4b       	movw   $0x4b4f,(%rbx)
  402d74:	c6 43 02 00          	movb   $0x0,0x2(%rbx)
  402d78:	b8 00 00 00 00       	mov    $0x0,%eax
  402d7d:	eb d7                	jmp    402d56 <driver_post+0x1f>
  402d7f:	48 83 ec 08          	sub    $0x8,%rsp
  402d83:	41 51                	push   %r9
  402d85:	49 89 c9             	mov    %rcx,%r9
  402d88:	49 89 d0             	mov    %rdx,%r8
  402d8b:	48 89 f9             	mov    %rdi,%rcx
  402d8e:	48 89 f2             	mov    %rsi,%rdx
  402d91:	be 9a 3c 00 00       	mov    $0x3c9a,%esi
  402d96:	bf 7c 36 40 00       	mov    $0x40367c,%edi
  402d9b:	e8 f8 f5 ff ff       	callq  402398 <submitr>
  402da0:	48 83 c4 10          	add    $0x10,%rsp
  402da4:	eb b0                	jmp    402d56 <driver_post+0x1f>

0000000000402da6 <check>:
  402da6:	89 f8                	mov    %edi,%eax
  402da8:	c1 e8 1c             	shr    $0x1c,%eax
  402dab:	85 c0                	test   %eax,%eax
  402dad:	74 1d                	je     402dcc <check+0x26>
  402daf:	b9 00 00 00 00       	mov    $0x0,%ecx
  402db4:	83 f9 1f             	cmp    $0x1f,%ecx
  402db7:	7f 0d                	jg     402dc6 <check+0x20>
  402db9:	89 f8                	mov    %edi,%eax
  402dbb:	d3 e8                	shr    %cl,%eax
  402dbd:	3c 0a                	cmp    $0xa,%al
  402dbf:	74 11                	je     402dd2 <check+0x2c>
  402dc1:	83 c1 08             	add    $0x8,%ecx
  402dc4:	eb ee                	jmp    402db4 <check+0xe>
  402dc6:	b8 01 00 00 00       	mov    $0x1,%eax
  402dcb:	c3                   	retq   
  402dcc:	b8 00 00 00 00       	mov    $0x0,%eax
  402dd1:	c3                   	retq   
  402dd2:	b8 00 00 00 00       	mov    $0x0,%eax
  402dd7:	c3                   	retq   

0000000000402dd8 <gencookie>:
  402dd8:	53                   	push   %rbx
  402dd9:	83 c7 01             	add    $0x1,%edi
  402ddc:	e8 af de ff ff       	callq  400c90 <srandom@plt>
  402de1:	e8 ba df ff ff       	callq  400da0 <random@plt>
  402de6:	89 c3                	mov    %eax,%ebx
  402de8:	89 c7                	mov    %eax,%edi
  402dea:	e8 b7 ff ff ff       	callq  402da6 <check>
  402def:	85 c0                	test   %eax,%eax
  402df1:	74 ee                	je     402de1 <gencookie+0x9>
  402df3:	89 d8                	mov    %ebx,%eax
  402df5:	5b                   	pop    %rbx
  402df6:	c3                   	retq   
  402df7:	66 0f 1f 84 00 00 00 	nopw   0x0(%rax,%rax,1)
  402dfe:	00 00 

0000000000402e00 <__libc_csu_init>:
  402e00:	41 57                	push   %r15
  402e02:	41 56                	push   %r14
  402e04:	49 89 d7             	mov    %rdx,%r15
  402e07:	41 55                	push   %r13
  402e09:	41 54                	push   %r12
  402e0b:	4c 8d 25 fe 0f 20 00 	lea    0x200ffe(%rip),%r12        # 603e10 <__frame_dummy_init_array_entry>
  402e12:	55                   	push   %rbp
  402e13:	48 8d 2d fe 0f 20 00 	lea    0x200ffe(%rip),%rbp        # 603e18 <__init_array_end>
  402e1a:	53                   	push   %rbx
  402e1b:	41 89 fd             	mov    %edi,%r13d
  402e1e:	49 89 f6             	mov    %rsi,%r14
  402e21:	4c 29 e5             	sub    %r12,%rbp
  402e24:	48 83 ec 08          	sub    $0x8,%rsp
  402e28:	48 c1 fd 03          	sar    $0x3,%rbp
  402e2c:	e8 17 de ff ff       	callq  400c48 <_init>
  402e31:	48 85 ed             	test   %rbp,%rbp
  402e34:	74 20                	je     402e56 <__libc_csu_init+0x56>
  402e36:	31 db                	xor    %ebx,%ebx
  402e38:	0f 1f 84 00 00 00 00 	nopl   0x0(%rax,%rax,1)
  402e3f:	00 
  402e40:	4c 89 fa             	mov    %r15,%rdx
  402e43:	4c 89 f6             	mov    %r14,%rsi
  402e46:	44 89 ef             	mov    %r13d,%edi
  402e49:	41 ff 14 dc          	callq  *(%r12,%rbx,8)
  402e4d:	48 83 c3 01          	add    $0x1,%rbx
  402e51:	48 39 dd             	cmp    %rbx,%rbp
  402e54:	75 ea                	jne    402e40 <__libc_csu_init+0x40>
  402e56:	48 83 c4 08          	add    $0x8,%rsp
  402e5a:	5b                   	pop    %rbx
  402e5b:	5d                   	pop    %rbp
  402e5c:	41 5c                	pop    %r12
  402e5e:	41 5d                	pop    %r13
  402e60:	41 5e                	pop    %r14
  402e62:	41 5f                	pop    %r15
  402e64:	c3                   	retq   
  402e65:	90                   	nop
  402e66:	66 2e 0f 1f 84 00 00 	nopw   %cs:0x0(%rax,%rax,1)
  402e6d:	00 00 00 

0000000000402e70 <__libc_csu_fini>:
  402e70:	f3 c3                	repz retq 

Disassembly of section .fini:

0000000000402e74 <_fini>:
  402e74:	48 83 ec 08          	sub    $0x8,%rsp
  402e78:	48 83 c4 08          	add    $0x8,%rsp
  402e7c:	c3                   	retq   
