
rtarget:     file format elf64-x86-64


Disassembly of section .init:

0000000000400c48 <_init>:
  400c48:	48 83 ec 08          	sub    $0x8,%rsp
  400c4c:	48 8b 05 a5 43 20 00 	mov    0x2043a5(%rip),%rax        # 604ff8 <__gmon_start__>
  400c53:	48 85 c0             	test   %rax,%rax
  400c56:	74 02                	je     400c5a <_init+0x12>
  400c58:	ff d0                	callq  *%rax
  400c5a:	48 83 c4 08          	add    $0x8,%rsp
  400c5e:	c3                   	retq   

Disassembly of section .plt:

0000000000400c60 <.plt>:
  400c60:	ff 35 a2 43 20 00    	pushq  0x2043a2(%rip)        # 605008 <_GLOBAL_OFFSET_TABLE_+0x8>
  400c66:	ff 25 a4 43 20 00    	jmpq   *0x2043a4(%rip)        # 605010 <_GLOBAL_OFFSET_TABLE_+0x10>
  400c6c:	0f 1f 40 00          	nopl   0x0(%rax)

0000000000400c70 <strcasecmp@plt>:
  400c70:	ff 25 a2 43 20 00    	jmpq   *0x2043a2(%rip)        # 605018 <strcasecmp@GLIBC_2.2.5>
  400c76:	68 00 00 00 00       	pushq  $0x0
  400c7b:	e9 e0 ff ff ff       	jmpq   400c60 <.plt>

0000000000400c80 <__errno_location@plt>:
  400c80:	ff 25 9a 43 20 00    	jmpq   *0x20439a(%rip)        # 605020 <__errno_location@GLIBC_2.2.5>
  400c86:	68 01 00 00 00       	pushq  $0x1
  400c8b:	e9 d0 ff ff ff       	jmpq   400c60 <.plt>

0000000000400c90 <srandom@plt>:
  400c90:	ff 25 92 43 20 00    	jmpq   *0x204392(%rip)        # 605028 <srandom@GLIBC_2.2.5>
  400c96:	68 02 00 00 00       	pushq  $0x2
  400c9b:	e9 c0 ff ff ff       	jmpq   400c60 <.plt>

0000000000400ca0 <strncmp@plt>:
  400ca0:	ff 25 8a 43 20 00    	jmpq   *0x20438a(%rip)        # 605030 <strncmp@GLIBC_2.2.5>
  400ca6:	68 03 00 00 00       	pushq  $0x3
  400cab:	e9 b0 ff ff ff       	jmpq   400c60 <.plt>

0000000000400cb0 <strcpy@plt>:
  400cb0:	ff 25 82 43 20 00    	jmpq   *0x204382(%rip)        # 605038 <strcpy@GLIBC_2.2.5>
  400cb6:	68 04 00 00 00       	pushq  $0x4
  400cbb:	e9 a0 ff ff ff       	jmpq   400c60 <.plt>

0000000000400cc0 <puts@plt>:
  400cc0:	ff 25 7a 43 20 00    	jmpq   *0x20437a(%rip)        # 605040 <puts@GLIBC_2.2.5>
  400cc6:	68 05 00 00 00       	pushq  $0x5
  400ccb:	e9 90 ff ff ff       	jmpq   400c60 <.plt>

0000000000400cd0 <write@plt>:
  400cd0:	ff 25 72 43 20 00    	jmpq   *0x204372(%rip)        # 605048 <write@GLIBC_2.2.5>
  400cd6:	68 06 00 00 00       	pushq  $0x6
  400cdb:	e9 80 ff ff ff       	jmpq   400c60 <.plt>

0000000000400ce0 <__stack_chk_fail@plt>:
  400ce0:	ff 25 6a 43 20 00    	jmpq   *0x20436a(%rip)        # 605050 <__stack_chk_fail@GLIBC_2.4>
  400ce6:	68 07 00 00 00       	pushq  $0x7
  400ceb:	e9 70 ff ff ff       	jmpq   400c60 <.plt>

0000000000400cf0 <mmap@plt>:
  400cf0:	ff 25 62 43 20 00    	jmpq   *0x204362(%rip)        # 605058 <mmap@GLIBC_2.2.5>
  400cf6:	68 08 00 00 00       	pushq  $0x8
  400cfb:	e9 60 ff ff ff       	jmpq   400c60 <.plt>

0000000000400d00 <memset@plt>:
  400d00:	ff 25 5a 43 20 00    	jmpq   *0x20435a(%rip)        # 605060 <memset@GLIBC_2.2.5>
  400d06:	68 09 00 00 00       	pushq  $0x9
  400d0b:	e9 50 ff ff ff       	jmpq   400c60 <.plt>

0000000000400d10 <alarm@plt>:
  400d10:	ff 25 52 43 20 00    	jmpq   *0x204352(%rip)        # 605068 <alarm@GLIBC_2.2.5>
  400d16:	68 0a 00 00 00       	pushq  $0xa
  400d1b:	e9 40 ff ff ff       	jmpq   400c60 <.plt>

0000000000400d20 <close@plt>:
  400d20:	ff 25 4a 43 20 00    	jmpq   *0x20434a(%rip)        # 605070 <close@GLIBC_2.2.5>
  400d26:	68 0b 00 00 00       	pushq  $0xb
  400d2b:	e9 30 ff ff ff       	jmpq   400c60 <.plt>

0000000000400d30 <read@plt>:
  400d30:	ff 25 42 43 20 00    	jmpq   *0x204342(%rip)        # 605078 <read@GLIBC_2.2.5>
  400d36:	68 0c 00 00 00       	pushq  $0xc
  400d3b:	e9 20 ff ff ff       	jmpq   400c60 <.plt>

0000000000400d40 <signal@plt>:
  400d40:	ff 25 3a 43 20 00    	jmpq   *0x20433a(%rip)        # 605080 <signal@GLIBC_2.2.5>
  400d46:	68 0d 00 00 00       	pushq  $0xd
  400d4b:	e9 10 ff ff ff       	jmpq   400c60 <.plt>

0000000000400d50 <gethostbyname@plt>:
  400d50:	ff 25 32 43 20 00    	jmpq   *0x204332(%rip)        # 605088 <gethostbyname@GLIBC_2.2.5>
  400d56:	68 0e 00 00 00       	pushq  $0xe
  400d5b:	e9 00 ff ff ff       	jmpq   400c60 <.plt>

0000000000400d60 <__memmove_chk@plt>:
  400d60:	ff 25 2a 43 20 00    	jmpq   *0x20432a(%rip)        # 605090 <__memmove_chk@GLIBC_2.3.4>
  400d66:	68 0f 00 00 00       	pushq  $0xf
  400d6b:	e9 f0 fe ff ff       	jmpq   400c60 <.plt>

0000000000400d70 <strtol@plt>:
  400d70:	ff 25 22 43 20 00    	jmpq   *0x204322(%rip)        # 605098 <strtol@GLIBC_2.2.5>
  400d76:	68 10 00 00 00       	pushq  $0x10
  400d7b:	e9 e0 fe ff ff       	jmpq   400c60 <.plt>

0000000000400d80 <memcpy@plt>:
  400d80:	ff 25 1a 43 20 00    	jmpq   *0x20431a(%rip)        # 6050a0 <memcpy@GLIBC_2.14>
  400d86:	68 11 00 00 00       	pushq  $0x11
  400d8b:	e9 d0 fe ff ff       	jmpq   400c60 <.plt>

0000000000400d90 <time@plt>:
  400d90:	ff 25 12 43 20 00    	jmpq   *0x204312(%rip)        # 6050a8 <time@GLIBC_2.2.5>
  400d96:	68 12 00 00 00       	pushq  $0x12
  400d9b:	e9 c0 fe ff ff       	jmpq   400c60 <.plt>

0000000000400da0 <random@plt>:
  400da0:	ff 25 0a 43 20 00    	jmpq   *0x20430a(%rip)        # 6050b0 <random@GLIBC_2.2.5>
  400da6:	68 13 00 00 00       	pushq  $0x13
  400dab:	e9 b0 fe ff ff       	jmpq   400c60 <.plt>

0000000000400db0 <_IO_getc@plt>:
  400db0:	ff 25 02 43 20 00    	jmpq   *0x204302(%rip)        # 6050b8 <_IO_getc@GLIBC_2.2.5>
  400db6:	68 14 00 00 00       	pushq  $0x14
  400dbb:	e9 a0 fe ff ff       	jmpq   400c60 <.plt>

0000000000400dc0 <__isoc99_sscanf@plt>:
  400dc0:	ff 25 fa 42 20 00    	jmpq   *0x2042fa(%rip)        # 6050c0 <__isoc99_sscanf@GLIBC_2.7>
  400dc6:	68 15 00 00 00       	pushq  $0x15
  400dcb:	e9 90 fe ff ff       	jmpq   400c60 <.plt>

0000000000400dd0 <munmap@plt>:
  400dd0:	ff 25 f2 42 20 00    	jmpq   *0x2042f2(%rip)        # 6050c8 <munmap@GLIBC_2.2.5>
  400dd6:	68 16 00 00 00       	pushq  $0x16
  400ddb:	e9 80 fe ff ff       	jmpq   400c60 <.plt>

0000000000400de0 <__printf_chk@plt>:
  400de0:	ff 25 ea 42 20 00    	jmpq   *0x2042ea(%rip)        # 6050d0 <__printf_chk@GLIBC_2.3.4>
  400de6:	68 17 00 00 00       	pushq  $0x17
  400deb:	e9 70 fe ff ff       	jmpq   400c60 <.plt>

0000000000400df0 <fopen@plt>:
  400df0:	ff 25 e2 42 20 00    	jmpq   *0x2042e2(%rip)        # 6050d8 <fopen@GLIBC_2.2.5>
  400df6:	68 18 00 00 00       	pushq  $0x18
  400dfb:	e9 60 fe ff ff       	jmpq   400c60 <.plt>

0000000000400e00 <getopt@plt>:
  400e00:	ff 25 da 42 20 00    	jmpq   *0x2042da(%rip)        # 6050e0 <getopt@GLIBC_2.2.5>
  400e06:	68 19 00 00 00       	pushq  $0x19
  400e0b:	e9 50 fe ff ff       	jmpq   400c60 <.plt>

0000000000400e10 <strtoul@plt>:
  400e10:	ff 25 d2 42 20 00    	jmpq   *0x2042d2(%rip)        # 6050e8 <strtoul@GLIBC_2.2.5>
  400e16:	68 1a 00 00 00       	pushq  $0x1a
  400e1b:	e9 40 fe ff ff       	jmpq   400c60 <.plt>

0000000000400e20 <gethostname@plt>:
  400e20:	ff 25 ca 42 20 00    	jmpq   *0x2042ca(%rip)        # 6050f0 <gethostname@GLIBC_2.2.5>
  400e26:	68 1b 00 00 00       	pushq  $0x1b
  400e2b:	e9 30 fe ff ff       	jmpq   400c60 <.plt>

0000000000400e30 <exit@plt>:
  400e30:	ff 25 c2 42 20 00    	jmpq   *0x2042c2(%rip)        # 6050f8 <exit@GLIBC_2.2.5>
  400e36:	68 1c 00 00 00       	pushq  $0x1c
  400e3b:	e9 20 fe ff ff       	jmpq   400c60 <.plt>

0000000000400e40 <connect@plt>:
  400e40:	ff 25 ba 42 20 00    	jmpq   *0x2042ba(%rip)        # 605100 <connect@GLIBC_2.2.5>
  400e46:	68 1d 00 00 00       	pushq  $0x1d
  400e4b:	e9 10 fe ff ff       	jmpq   400c60 <.plt>

0000000000400e50 <__fprintf_chk@plt>:
  400e50:	ff 25 b2 42 20 00    	jmpq   *0x2042b2(%rip)        # 605108 <__fprintf_chk@GLIBC_2.3.4>
  400e56:	68 1e 00 00 00       	pushq  $0x1e
  400e5b:	e9 00 fe ff ff       	jmpq   400c60 <.plt>

0000000000400e60 <__sprintf_chk@plt>:
  400e60:	ff 25 aa 42 20 00    	jmpq   *0x2042aa(%rip)        # 605110 <__sprintf_chk@GLIBC_2.3.4>
  400e66:	68 1f 00 00 00       	pushq  $0x1f
  400e6b:	e9 f0 fd ff ff       	jmpq   400c60 <.plt>

0000000000400e70 <socket@plt>:
  400e70:	ff 25 a2 42 20 00    	jmpq   *0x2042a2(%rip)        # 605118 <socket@GLIBC_2.2.5>
  400e76:	68 20 00 00 00       	pushq  $0x20
  400e7b:	e9 e0 fd ff ff       	jmpq   400c60 <.plt>

Disassembly of section .text:

0000000000400e80 <_start>:
  400e80:	31 ed                	xor    %ebp,%ebp
  400e82:	49 89 d1             	mov    %rdx,%r9
  400e85:	5e                   	pop    %rsi
  400e86:	48 89 e2             	mov    %rsp,%rdx
  400e89:	48 83 e4 f0          	and    $0xfffffffffffffff0,%rsp
  400e8d:	50                   	push   %rax
  400e8e:	54                   	push   %rsp
  400e8f:	49 c7 c0 90 2f 40 00 	mov    $0x402f90,%r8
  400e96:	48 c7 c1 20 2f 40 00 	mov    $0x402f20,%rcx
  400e9d:	48 c7 c7 73 11 40 00 	mov    $0x401173,%rdi
  400ea4:	ff 15 46 41 20 00    	callq  *0x204146(%rip)        # 604ff0 <__libc_start_main@GLIBC_2.2.5>
  400eaa:	f4                   	hlt    
  400eab:	0f 1f 44 00 00       	nopl   0x0(%rax,%rax,1)

0000000000400eb0 <_dl_relocate_static_pie>:
  400eb0:	f3 c3                	repz retq 
  400eb2:	66 2e 0f 1f 84 00 00 	nopw   %cs:0x0(%rax,%rax,1)
  400eb9:	00 00 00 
  400ebc:	0f 1f 40 00          	nopl   0x0(%rax)

0000000000400ec0 <deregister_tm_clones>:
  400ec0:	55                   	push   %rbp
  400ec1:	b8 90 54 60 00       	mov    $0x605490,%eax
  400ec6:	48 3d 90 54 60 00    	cmp    $0x605490,%rax
  400ecc:	48 89 e5             	mov    %rsp,%rbp
  400ecf:	74 17                	je     400ee8 <deregister_tm_clones+0x28>
  400ed1:	b8 00 00 00 00       	mov    $0x0,%eax
  400ed6:	48 85 c0             	test   %rax,%rax
  400ed9:	74 0d                	je     400ee8 <deregister_tm_clones+0x28>
  400edb:	5d                   	pop    %rbp
  400edc:	bf 90 54 60 00       	mov    $0x605490,%edi
  400ee1:	ff e0                	jmpq   *%rax
  400ee3:	0f 1f 44 00 00       	nopl   0x0(%rax,%rax,1)
  400ee8:	5d                   	pop    %rbp
  400ee9:	c3                   	retq   
  400eea:	66 0f 1f 44 00 00    	nopw   0x0(%rax,%rax,1)

0000000000400ef0 <register_tm_clones>:
  400ef0:	be 90 54 60 00       	mov    $0x605490,%esi
  400ef5:	55                   	push   %rbp
  400ef6:	48 81 ee 90 54 60 00 	sub    $0x605490,%rsi
  400efd:	48 89 e5             	mov    %rsp,%rbp
  400f00:	48 c1 fe 03          	sar    $0x3,%rsi
  400f04:	48 89 f0             	mov    %rsi,%rax
  400f07:	48 c1 e8 3f          	shr    $0x3f,%rax
  400f0b:	48 01 c6             	add    %rax,%rsi
  400f0e:	48 d1 fe             	sar    %rsi
  400f11:	74 15                	je     400f28 <register_tm_clones+0x38>
  400f13:	b8 00 00 00 00       	mov    $0x0,%eax
  400f18:	48 85 c0             	test   %rax,%rax
  400f1b:	74 0b                	je     400f28 <register_tm_clones+0x38>
  400f1d:	5d                   	pop    %rbp
  400f1e:	bf 90 54 60 00       	mov    $0x605490,%edi
  400f23:	ff e0                	jmpq   *%rax
  400f25:	0f 1f 00             	nopl   (%rax)
  400f28:	5d                   	pop    %rbp
  400f29:	c3                   	retq   
  400f2a:	66 0f 1f 44 00 00    	nopw   0x0(%rax,%rax,1)

0000000000400f30 <__do_global_dtors_aux>:
  400f30:	80 3d 91 45 20 00 00 	cmpb   $0x0,0x204591(%rip)        # 6054c8 <completed.7698>
  400f37:	75 17                	jne    400f50 <__do_global_dtors_aux+0x20>
  400f39:	55                   	push   %rbp
  400f3a:	48 89 e5             	mov    %rsp,%rbp
  400f3d:	e8 7e ff ff ff       	callq  400ec0 <deregister_tm_clones>
  400f42:	c6 05 7f 45 20 00 01 	movb   $0x1,0x20457f(%rip)        # 6054c8 <completed.7698>
  400f49:	5d                   	pop    %rbp
  400f4a:	c3                   	retq   
  400f4b:	0f 1f 44 00 00       	nopl   0x0(%rax,%rax,1)
  400f50:	f3 c3                	repz retq 
  400f52:	0f 1f 40 00          	nopl   0x0(%rax)
  400f56:	66 2e 0f 1f 84 00 00 	nopw   %cs:0x0(%rax,%rax,1)
  400f5d:	00 00 00 

0000000000400f60 <frame_dummy>:
  400f60:	55                   	push   %rbp
  400f61:	48 89 e5             	mov    %rsp,%rbp
  400f64:	5d                   	pop    %rbp
  400f65:	eb 89                	jmp    400ef0 <register_tm_clones>

0000000000400f67 <usage>:
  400f67:	48 83 ec 08          	sub    $0x8,%rsp
  400f6b:	48 89 fa             	mov    %rdi,%rdx
  400f6e:	83 3d 93 45 20 00 00 	cmpl   $0x0,0x204593(%rip)        # 605508 <is_checker>
  400f75:	74 46                	je     400fbd <usage+0x56>
  400f77:	be a8 2f 40 00       	mov    $0x402fa8,%esi
  400f7c:	bf 01 00 00 00       	mov    $0x1,%edi
  400f81:	b8 00 00 00 00       	mov    $0x0,%eax
  400f86:	e8 55 fe ff ff       	callq  400de0 <__printf_chk@plt>
  400f8b:	bf e0 2f 40 00       	mov    $0x402fe0,%edi
  400f90:	e8 2b fd ff ff       	callq  400cc0 <puts@plt>
  400f95:	bf 58 31 40 00       	mov    $0x403158,%edi
  400f9a:	e8 21 fd ff ff       	callq  400cc0 <puts@plt>
  400f9f:	bf 08 30 40 00       	mov    $0x403008,%edi
  400fa4:	e8 17 fd ff ff       	callq  400cc0 <puts@plt>
  400fa9:	bf 72 31 40 00       	mov    $0x403172,%edi
  400fae:	e8 0d fd ff ff       	callq  400cc0 <puts@plt>
  400fb3:	bf 00 00 00 00       	mov    $0x0,%edi
  400fb8:	e8 73 fe ff ff       	callq  400e30 <exit@plt>
  400fbd:	be 8e 31 40 00       	mov    $0x40318e,%esi
  400fc2:	bf 01 00 00 00       	mov    $0x1,%edi
  400fc7:	b8 00 00 00 00       	mov    $0x0,%eax
  400fcc:	e8 0f fe ff ff       	callq  400de0 <__printf_chk@plt>
  400fd1:	bf 30 30 40 00       	mov    $0x403030,%edi
  400fd6:	e8 e5 fc ff ff       	callq  400cc0 <puts@plt>
  400fdb:	bf 58 30 40 00       	mov    $0x403058,%edi
  400fe0:	e8 db fc ff ff       	callq  400cc0 <puts@plt>
  400fe5:	bf ac 31 40 00       	mov    $0x4031ac,%edi
  400fea:	e8 d1 fc ff ff       	callq  400cc0 <puts@plt>
  400fef:	eb c2                	jmp    400fb3 <usage+0x4c>

0000000000400ff1 <initialize_target>:
  400ff1:	55                   	push   %rbp
  400ff2:	53                   	push   %rbx
  400ff3:	48 81 ec 18 21 00 00 	sub    $0x2118,%rsp
  400ffa:	89 f5                	mov    %esi,%ebp
  400ffc:	64 48 8b 04 25 28 00 	mov    %fs:0x28,%rax
  401003:	00 00 
  401005:	48 89 84 24 08 21 00 	mov    %rax,0x2108(%rsp)
  40100c:	00 
  40100d:	31 c0                	xor    %eax,%eax
  40100f:	89 3d e3 44 20 00    	mov    %edi,0x2044e3(%rip)        # 6054f8 <check_level>
  401015:	8b 3d 2d 41 20 00    	mov    0x20412d(%rip),%edi        # 605148 <target_id>
  40101b:	e8 d7 1e 00 00       	callq  402ef7 <gencookie>
  401020:	89 05 de 44 20 00    	mov    %eax,0x2044de(%rip)        # 605504 <cookie>
  401026:	89 c7                	mov    %eax,%edi
  401028:	e8 ca 1e 00 00       	callq  402ef7 <gencookie>
  40102d:	89 05 cd 44 20 00    	mov    %eax,0x2044cd(%rip)        # 605500 <authkey>
  401033:	8b 05 0f 41 20 00    	mov    0x20410f(%rip),%eax        # 605148 <target_id>
  401039:	8d 78 01             	lea    0x1(%rax),%edi
  40103c:	e8 4f fc ff ff       	callq  400c90 <srandom@plt>
  401041:	e8 5a fd ff ff       	callq  400da0 <random@plt>
  401046:	89 c7                	mov    %eax,%edi
  401048:	e8 f2 02 00 00       	callq  40133f <scramble>
  40104d:	89 c3                	mov    %eax,%ebx
  40104f:	85 ed                	test   %ebp,%ebp
  401051:	75 54                	jne    4010a7 <initialize_target+0xb6>
  401053:	b8 00 00 00 00       	mov    $0x0,%eax
  401058:	01 d8                	add    %ebx,%eax
  40105a:	0f b7 c0             	movzwl %ax,%eax
  40105d:	8d 04 c5 00 01 00 00 	lea    0x100(,%rax,8),%eax
  401064:	89 c0                	mov    %eax,%eax
  401066:	48 89 05 13 44 20 00 	mov    %rax,0x204413(%rip)        # 605480 <buf_offset>
  40106d:	c6 05 b4 50 20 00 72 	movb   $0x72,0x2050b4(%rip)        # 606128 <target_prefix>
  401074:	83 3d 0d 44 20 00 00 	cmpl   $0x0,0x20440d(%rip)        # 605488 <notify>
  40107b:	74 09                	je     401086 <initialize_target+0x95>
  40107d:	83 3d 84 44 20 00 00 	cmpl   $0x0,0x204484(%rip)        # 605508 <is_checker>
  401084:	74 39                	je     4010bf <initialize_target+0xce>
  401086:	48 8b 84 24 08 21 00 	mov    0x2108(%rsp),%rax
  40108d:	00 
  40108e:	64 48 33 04 25 28 00 	xor    %fs:0x28,%rax
  401095:	00 00 
  401097:	0f 85 d1 00 00 00    	jne    40116e <initialize_target+0x17d>
  40109d:	48 81 c4 18 21 00 00 	add    $0x2118,%rsp
  4010a4:	5b                   	pop    %rbx
  4010a5:	5d                   	pop    %rbp
  4010a6:	c3                   	retq   
  4010a7:	bf 00 00 00 00       	mov    $0x0,%edi
  4010ac:	e8 df fc ff ff       	callq  400d90 <time@plt>
  4010b1:	89 c7                	mov    %eax,%edi
  4010b3:	e8 d8 fb ff ff       	callq  400c90 <srandom@plt>
  4010b8:	e8 e3 fc ff ff       	callq  400da0 <random@plt>
  4010bd:	eb 99                	jmp    401058 <initialize_target+0x67>
  4010bf:	be 00 01 00 00       	mov    $0x100,%esi
  4010c4:	48 89 e7             	mov    %rsp,%rdi
  4010c7:	e8 54 fd ff ff       	callq  400e20 <gethostname@plt>
  4010cc:	89 c5                	mov    %eax,%ebp
  4010ce:	85 c0                	test   %eax,%eax
  4010d0:	75 23                	jne    4010f5 <initialize_target+0x104>
  4010d2:	89 c3                	mov    %eax,%ebx
  4010d4:	48 63 c3             	movslq %ebx,%rax
  4010d7:	48 8b 3c c5 60 51 60 	mov    0x605160(,%rax,8),%rdi
  4010de:	00 
  4010df:	48 85 ff             	test   %rdi,%rdi
  4010e2:	74 2a                	je     40110e <initialize_target+0x11d>
  4010e4:	48 89 e6             	mov    %rsp,%rsi
  4010e7:	e8 84 fb ff ff       	callq  400c70 <strcasecmp@plt>
  4010ec:	85 c0                	test   %eax,%eax
  4010ee:	74 19                	je     401109 <initialize_target+0x118>
  4010f0:	83 c3 01             	add    $0x1,%ebx
  4010f3:	eb df                	jmp    4010d4 <initialize_target+0xe3>
  4010f5:	bf 88 30 40 00       	mov    $0x403088,%edi
  4010fa:	e8 c1 fb ff ff       	callq  400cc0 <puts@plt>
  4010ff:	bf 08 00 00 00       	mov    $0x8,%edi
  401104:	e8 27 fd ff ff       	callq  400e30 <exit@plt>
  401109:	bd 01 00 00 00       	mov    $0x1,%ebp
  40110e:	85 ed                	test   %ebp,%ebp
  401110:	74 3b                	je     40114d <initialize_target+0x15c>
  401112:	48 8d bc 24 00 01 00 	lea    0x100(%rsp),%rdi
  401119:	00 
  40111a:	e8 2d 1b 00 00       	callq  402c4c <init_driver>
  40111f:	85 c0                	test   %eax,%eax
  401121:	0f 89 5f ff ff ff    	jns    401086 <initialize_target+0x95>
  401127:	48 8d 94 24 00 01 00 	lea    0x100(%rsp),%rdx
  40112e:	00 
  40112f:	be 00 31 40 00       	mov    $0x403100,%esi
  401134:	bf 01 00 00 00       	mov    $0x1,%edi
  401139:	b8 00 00 00 00       	mov    $0x0,%eax
  40113e:	e8 9d fc ff ff       	callq  400de0 <__printf_chk@plt>
  401143:	bf 08 00 00 00       	mov    $0x8,%edi
  401148:	e8 e3 fc ff ff       	callq  400e30 <exit@plt>
  40114d:	48 89 e2             	mov    %rsp,%rdx
  401150:	be c0 30 40 00       	mov    $0x4030c0,%esi
  401155:	bf 01 00 00 00       	mov    $0x1,%edi
  40115a:	b8 00 00 00 00       	mov    $0x0,%eax
  40115f:	e8 7c fc ff ff       	callq  400de0 <__printf_chk@plt>
  401164:	bf 08 00 00 00       	mov    $0x8,%edi
  401169:	e8 c2 fc ff ff       	callq  400e30 <exit@plt>
  40116e:	e8 6d fb ff ff       	callq  400ce0 <__stack_chk_fail@plt>

0000000000401173 <main>:
  401173:	41 56                	push   %r14
  401175:	41 55                	push   %r13
  401177:	41 54                	push   %r12
  401179:	55                   	push   %rbp
  40117a:	53                   	push   %rbx
  40117b:	41 89 fc             	mov    %edi,%r12d
  40117e:	48 89 f3             	mov    %rsi,%rbx
  401181:	be 89 1f 40 00       	mov    $0x401f89,%esi
  401186:	bf 0b 00 00 00       	mov    $0xb,%edi
  40118b:	e8 b0 fb ff ff       	callq  400d40 <signal@plt>
  401190:	be 3b 1f 40 00       	mov    $0x401f3b,%esi
  401195:	bf 07 00 00 00       	mov    $0x7,%edi
  40119a:	e8 a1 fb ff ff       	callq  400d40 <signal@plt>
  40119f:	be d7 1f 40 00       	mov    $0x401fd7,%esi
  4011a4:	bf 04 00 00 00       	mov    $0x4,%edi
  4011a9:	e8 92 fb ff ff       	callq  400d40 <signal@plt>
  4011ae:	83 3d 53 43 20 00 00 	cmpl   $0x0,0x204353(%rip)        # 605508 <is_checker>
  4011b5:	75 24                	jne    4011db <main+0x68>
  4011b7:	bd c5 31 40 00       	mov    $0x4031c5,%ebp
  4011bc:	48 8b 05 dd 42 20 00 	mov    0x2042dd(%rip),%rax        # 6054a0 <stdin@@GLIBC_2.2.5>
  4011c3:	48 89 05 26 43 20 00 	mov    %rax,0x204326(%rip)        # 6054f0 <infile>
  4011ca:	41 bd 00 00 00 00    	mov    $0x0,%r13d
  4011d0:	41 be 00 00 00 00    	mov    $0x0,%r14d
  4011d6:	e9 85 00 00 00       	jmpq   401260 <main+0xed>
  4011db:	be 25 20 40 00       	mov    $0x402025,%esi
  4011e0:	bf 0e 00 00 00       	mov    $0xe,%edi
  4011e5:	e8 56 fb ff ff       	callq  400d40 <signal@plt>
  4011ea:	bf 05 00 00 00       	mov    $0x5,%edi
  4011ef:	e8 1c fb ff ff       	callq  400d10 <alarm@plt>
  4011f4:	bd ca 31 40 00       	mov    $0x4031ca,%ebp
  4011f9:	eb c1                	jmp    4011bc <main+0x49>
  4011fb:	48 8b 3b             	mov    (%rbx),%rdi
  4011fe:	e8 64 fd ff ff       	callq  400f67 <usage>
  401203:	be 95 34 40 00       	mov    $0x403495,%esi
  401208:	48 8b 3d 99 42 20 00 	mov    0x204299(%rip),%rdi        # 6054a8 <optarg@@GLIBC_2.2.5>
  40120f:	e8 dc fb ff ff       	callq  400df0 <fopen@plt>
  401214:	48 89 05 d5 42 20 00 	mov    %rax,0x2042d5(%rip)        # 6054f0 <infile>
  40121b:	48 85 c0             	test   %rax,%rax
  40121e:	75 40                	jne    401260 <main+0xed>
  401220:	48 8b 0d 81 42 20 00 	mov    0x204281(%rip),%rcx        # 6054a8 <optarg@@GLIBC_2.2.5>
  401227:	ba d2 31 40 00       	mov    $0x4031d2,%edx
  40122c:	be 01 00 00 00       	mov    $0x1,%esi
  401231:	48 8b 3d 88 42 20 00 	mov    0x204288(%rip),%rdi        # 6054c0 <stderr@@GLIBC_2.2.5>
  401238:	e8 13 fc ff ff       	callq  400e50 <__fprintf_chk@plt>
  40123d:	b8 01 00 00 00       	mov    $0x1,%eax
  401242:	e9 cc 00 00 00       	jmpq   401313 <main+0x1a0>
  401247:	ba 10 00 00 00       	mov    $0x10,%edx
  40124c:	be 00 00 00 00       	mov    $0x0,%esi
  401251:	48 8b 3d 50 42 20 00 	mov    0x204250(%rip),%rdi        # 6054a8 <optarg@@GLIBC_2.2.5>
  401258:	e8 b3 fb ff ff       	callq  400e10 <strtoul@plt>
  40125d:	41 89 c6             	mov    %eax,%r14d
  401260:	48 89 ea             	mov    %rbp,%rdx
  401263:	48 89 de             	mov    %rbx,%rsi
  401266:	44 89 e7             	mov    %r12d,%edi
  401269:	e8 92 fb ff ff       	callq  400e00 <getopt@plt>
  40126e:	3c ff                	cmp    $0xff,%al
  401270:	74 57                	je     4012c9 <main+0x156>
  401272:	0f be d0             	movsbl %al,%edx
  401275:	83 e8 61             	sub    $0x61,%eax
  401278:	3c 10                	cmp    $0x10,%al
  40127a:	77 31                	ja     4012ad <main+0x13a>
  40127c:	0f b6 c0             	movzbl %al,%eax
  40127f:	ff 24 c5 10 32 40 00 	jmpq   *0x403210(,%rax,8)
  401286:	ba 0a 00 00 00       	mov    $0xa,%edx
  40128b:	be 00 00 00 00       	mov    $0x0,%esi
  401290:	48 8b 3d 11 42 20 00 	mov    0x204211(%rip),%rdi        # 6054a8 <optarg@@GLIBC_2.2.5>
  401297:	e8 d4 fa ff ff       	callq  400d70 <strtol@plt>
  40129c:	41 89 c5             	mov    %eax,%r13d
  40129f:	eb bf                	jmp    401260 <main+0xed>
  4012a1:	c7 05 dd 41 20 00 00 	movl   $0x0,0x2041dd(%rip)        # 605488 <notify>
  4012a8:	00 00 00 
  4012ab:	eb b3                	jmp    401260 <main+0xed>
  4012ad:	be ef 31 40 00       	mov    $0x4031ef,%esi
  4012b2:	bf 01 00 00 00       	mov    $0x1,%edi
  4012b7:	b8 00 00 00 00       	mov    $0x0,%eax
  4012bc:	e8 1f fb ff ff       	callq  400de0 <__printf_chk@plt>
  4012c1:	48 8b 3b             	mov    (%rbx),%rdi
  4012c4:	e8 9e fc ff ff       	callq  400f67 <usage>
  4012c9:	be 01 00 00 00       	mov    $0x1,%esi
  4012ce:	44 89 ef             	mov    %r13d,%edi
  4012d1:	e8 1b fd ff ff       	callq  400ff1 <initialize_target>
  4012d6:	83 3d 2b 42 20 00 00 	cmpl   $0x0,0x20422b(%rip)        # 605508 <is_checker>
  4012dd:	74 09                	je     4012e8 <main+0x175>
  4012df:	44 39 35 1a 42 20 00 	cmp    %r14d,0x20421a(%rip)        # 605500 <authkey>
  4012e6:	75 34                	jne    40131c <main+0x1a9>
  4012e8:	8b 15 16 42 20 00    	mov    0x204216(%rip),%edx        # 605504 <cookie>
  4012ee:	be 02 32 40 00       	mov    $0x403202,%esi
  4012f3:	bf 01 00 00 00       	mov    $0x1,%edi
  4012f8:	b8 00 00 00 00       	mov    $0x0,%eax
  4012fd:	e8 de fa ff ff       	callq  400de0 <__printf_chk@plt>
  401302:	48 8b 3d 77 41 20 00 	mov    0x204177(%rip),%rdi        # 605480 <buf_offset>
  401309:	e8 6a 0d 00 00       	callq  402078 <launch>
  40130e:	b8 00 00 00 00       	mov    $0x0,%eax
  401313:	5b                   	pop    %rbx
  401314:	5d                   	pop    %rbp
  401315:	41 5c                	pop    %r12
  401317:	41 5d                	pop    %r13
  401319:	41 5e                	pop    %r14
  40131b:	c3                   	retq   
  40131c:	44 89 f2             	mov    %r14d,%edx
  40131f:	be 28 31 40 00       	mov    $0x403128,%esi
  401324:	bf 01 00 00 00       	mov    $0x1,%edi
  401329:	b8 00 00 00 00       	mov    $0x0,%eax
  40132e:	e8 ad fa ff ff       	callq  400de0 <__printf_chk@plt>
  401333:	b8 00 00 00 00       	mov    $0x0,%eax
  401338:	e8 87 08 00 00       	callq  401bc4 <check_fail>
  40133d:	eb a9                	jmp    4012e8 <main+0x175>

000000000040133f <scramble>:
  40133f:	48 83 ec 38          	sub    $0x38,%rsp
  401343:	64 48 8b 04 25 28 00 	mov    %fs:0x28,%rax
  40134a:	00 00 
  40134c:	48 89 44 24 28       	mov    %rax,0x28(%rsp)
  401351:	31 c0                	xor    %eax,%eax
  401353:	eb 10                	jmp    401365 <scramble+0x26>
  401355:	69 d0 28 47 00 00    	imul   $0x4728,%eax,%edx
  40135b:	01 fa                	add    %edi,%edx
  40135d:	89 c1                	mov    %eax,%ecx
  40135f:	89 14 8c             	mov    %edx,(%rsp,%rcx,4)
  401362:	83 c0 01             	add    $0x1,%eax
  401365:	83 f8 09             	cmp    $0x9,%eax
  401368:	76 eb                	jbe    401355 <scramble+0x16>
  40136a:	8b 44 24 14          	mov    0x14(%rsp),%eax
  40136e:	69 c0 fa 96 00 00    	imul   $0x96fa,%eax,%eax
  401374:	89 44 24 14          	mov    %eax,0x14(%rsp)
  401378:	8b 44 24 04          	mov    0x4(%rsp),%eax
  40137c:	69 c0 c1 46 00 00    	imul   $0x46c1,%eax,%eax
  401382:	89 44 24 04          	mov    %eax,0x4(%rsp)
  401386:	8b 44 24 04          	mov    0x4(%rsp),%eax
  40138a:	69 c0 78 99 00 00    	imul   $0x9978,%eax,%eax
  401390:	89 44 24 04          	mov    %eax,0x4(%rsp)
  401394:	8b 04 24             	mov    (%rsp),%eax
  401397:	69 c0 5c 20 00 00    	imul   $0x205c,%eax,%eax
  40139d:	89 04 24             	mov    %eax,(%rsp)
  4013a0:	8b 44 24 14          	mov    0x14(%rsp),%eax
  4013a4:	69 c0 20 39 00 00    	imul   $0x3920,%eax,%eax
  4013aa:	89 44 24 14          	mov    %eax,0x14(%rsp)
  4013ae:	8b 44 24 24          	mov    0x24(%rsp),%eax
  4013b2:	69 c0 f6 8a 00 00    	imul   $0x8af6,%eax,%eax
  4013b8:	89 44 24 24          	mov    %eax,0x24(%rsp)
  4013bc:	8b 44 24 10          	mov    0x10(%rsp),%eax
  4013c0:	69 c0 df b2 00 00    	imul   $0xb2df,%eax,%eax
  4013c6:	89 44 24 10          	mov    %eax,0x10(%rsp)
  4013ca:	8b 44 24 24          	mov    0x24(%rsp),%eax
  4013ce:	69 c0 cb 4f 00 00    	imul   $0x4fcb,%eax,%eax
  4013d4:	89 44 24 24          	mov    %eax,0x24(%rsp)
  4013d8:	8b 44 24 1c          	mov    0x1c(%rsp),%eax
  4013dc:	69 c0 b1 1a 00 00    	imul   $0x1ab1,%eax,%eax
  4013e2:	89 44 24 1c          	mov    %eax,0x1c(%rsp)
  4013e6:	8b 44 24 08          	mov    0x8(%rsp),%eax
  4013ea:	69 c0 a3 68 00 00    	imul   $0x68a3,%eax,%eax
  4013f0:	89 44 24 08          	mov    %eax,0x8(%rsp)
  4013f4:	8b 44 24 24          	mov    0x24(%rsp),%eax
  4013f8:	69 c0 8d 9c 00 00    	imul   $0x9c8d,%eax,%eax
  4013fe:	89 44 24 24          	mov    %eax,0x24(%rsp)
  401402:	8b 44 24 10          	mov    0x10(%rsp),%eax
  401406:	69 c0 17 8d 00 00    	imul   $0x8d17,%eax,%eax
  40140c:	89 44 24 10          	mov    %eax,0x10(%rsp)
  401410:	8b 44 24 04          	mov    0x4(%rsp),%eax
  401414:	69 c0 fd 92 00 00    	imul   $0x92fd,%eax,%eax
  40141a:	89 44 24 04          	mov    %eax,0x4(%rsp)
  40141e:	8b 44 24 08          	mov    0x8(%rsp),%eax
  401422:	69 c0 66 59 00 00    	imul   $0x5966,%eax,%eax
  401428:	89 44 24 08          	mov    %eax,0x8(%rsp)
  40142c:	8b 44 24 10          	mov    0x10(%rsp),%eax
  401430:	69 c0 39 21 00 00    	imul   $0x2139,%eax,%eax
  401436:	89 44 24 10          	mov    %eax,0x10(%rsp)
  40143a:	8b 44 24 04          	mov    0x4(%rsp),%eax
  40143e:	69 c0 d5 48 00 00    	imul   $0x48d5,%eax,%eax
  401444:	89 44 24 04          	mov    %eax,0x4(%rsp)
  401448:	8b 44 24 20          	mov    0x20(%rsp),%eax
  40144c:	69 c0 a3 82 00 00    	imul   $0x82a3,%eax,%eax
  401452:	89 44 24 20          	mov    %eax,0x20(%rsp)
  401456:	8b 04 24             	mov    (%rsp),%eax
  401459:	69 c0 ce 4e 00 00    	imul   $0x4ece,%eax,%eax
  40145f:	89 04 24             	mov    %eax,(%rsp)
  401462:	8b 44 24 08          	mov    0x8(%rsp),%eax
  401466:	69 c0 39 61 00 00    	imul   $0x6139,%eax,%eax
  40146c:	89 44 24 08          	mov    %eax,0x8(%rsp)
  401470:	8b 44 24 18          	mov    0x18(%rsp),%eax
  401474:	69 c0 b4 64 00 00    	imul   $0x64b4,%eax,%eax
  40147a:	89 44 24 18          	mov    %eax,0x18(%rsp)
  40147e:	8b 44 24 1c          	mov    0x1c(%rsp),%eax
  401482:	69 c0 ad 6f 00 00    	imul   $0x6fad,%eax,%eax
  401488:	89 44 24 1c          	mov    %eax,0x1c(%rsp)
  40148c:	8b 44 24 18          	mov    0x18(%rsp),%eax
  401490:	69 c0 11 a3 00 00    	imul   $0xa311,%eax,%eax
  401496:	89 44 24 18          	mov    %eax,0x18(%rsp)
  40149a:	8b 44 24 18          	mov    0x18(%rsp),%eax
  40149e:	69 c0 6d 8c 00 00    	imul   $0x8c6d,%eax,%eax
  4014a4:	89 44 24 18          	mov    %eax,0x18(%rsp)
  4014a8:	8b 44 24 10          	mov    0x10(%rsp),%eax
  4014ac:	69 c0 99 dd 00 00    	imul   $0xdd99,%eax,%eax
  4014b2:	89 44 24 10          	mov    %eax,0x10(%rsp)
  4014b6:	8b 44 24 24          	mov    0x24(%rsp),%eax
  4014ba:	69 c0 5e bc 00 00    	imul   $0xbc5e,%eax,%eax
  4014c0:	89 44 24 24          	mov    %eax,0x24(%rsp)
  4014c4:	8b 44 24 14          	mov    0x14(%rsp),%eax
  4014c8:	69 c0 ee 83 00 00    	imul   $0x83ee,%eax,%eax
  4014ce:	89 44 24 14          	mov    %eax,0x14(%rsp)
  4014d2:	8b 44 24 14          	mov    0x14(%rsp),%eax
  4014d6:	69 c0 74 14 00 00    	imul   $0x1474,%eax,%eax
  4014dc:	89 44 24 14          	mov    %eax,0x14(%rsp)
  4014e0:	8b 44 24 24          	mov    0x24(%rsp),%eax
  4014e4:	69 c0 6e 1c 00 00    	imul   $0x1c6e,%eax,%eax
  4014ea:	89 44 24 24          	mov    %eax,0x24(%rsp)
  4014ee:	8b 44 24 20          	mov    0x20(%rsp),%eax
  4014f2:	69 c0 8c a3 00 00    	imul   $0xa38c,%eax,%eax
  4014f8:	89 44 24 20          	mov    %eax,0x20(%rsp)
  4014fc:	8b 44 24 0c          	mov    0xc(%rsp),%eax
  401500:	69 c0 1e a9 00 00    	imul   $0xa91e,%eax,%eax
  401506:	89 44 24 0c          	mov    %eax,0xc(%rsp)
  40150a:	8b 44 24 0c          	mov    0xc(%rsp),%eax
  40150e:	69 c0 6c ea 00 00    	imul   $0xea6c,%eax,%eax
  401514:	89 44 24 0c          	mov    %eax,0xc(%rsp)
  401518:	8b 44 24 14          	mov    0x14(%rsp),%eax
  40151c:	69 c0 f8 7c 00 00    	imul   $0x7cf8,%eax,%eax
  401522:	89 44 24 14          	mov    %eax,0x14(%rsp)
  401526:	8b 04 24             	mov    (%rsp),%eax
  401529:	69 c0 89 81 00 00    	imul   $0x8189,%eax,%eax
  40152f:	89 04 24             	mov    %eax,(%rsp)
  401532:	8b 44 24 10          	mov    0x10(%rsp),%eax
  401536:	69 c0 2b 89 00 00    	imul   $0x892b,%eax,%eax
  40153c:	89 44 24 10          	mov    %eax,0x10(%rsp)
  401540:	8b 04 24             	mov    (%rsp),%eax
  401543:	69 c0 f0 3a 00 00    	imul   $0x3af0,%eax,%eax
  401549:	89 04 24             	mov    %eax,(%rsp)
  40154c:	8b 44 24 0c          	mov    0xc(%rsp),%eax
  401550:	69 c0 1c 7d 00 00    	imul   $0x7d1c,%eax,%eax
  401556:	89 44 24 0c          	mov    %eax,0xc(%rsp)
  40155a:	8b 44 24 1c          	mov    0x1c(%rsp),%eax
  40155e:	69 c0 8b dd 00 00    	imul   $0xdd8b,%eax,%eax
  401564:	89 44 24 1c          	mov    %eax,0x1c(%rsp)
  401568:	8b 44 24 08          	mov    0x8(%rsp),%eax
  40156c:	69 c0 29 cd 00 00    	imul   $0xcd29,%eax,%eax
  401572:	89 44 24 08          	mov    %eax,0x8(%rsp)
  401576:	8b 44 24 1c          	mov    0x1c(%rsp),%eax
  40157a:	69 c0 0a 13 00 00    	imul   $0x130a,%eax,%eax
  401580:	89 44 24 1c          	mov    %eax,0x1c(%rsp)
  401584:	8b 44 24 08          	mov    0x8(%rsp),%eax
  401588:	69 c0 16 11 00 00    	imul   $0x1116,%eax,%eax
  40158e:	89 44 24 08          	mov    %eax,0x8(%rsp)
  401592:	8b 44 24 0c          	mov    0xc(%rsp),%eax
  401596:	69 c0 00 f1 00 00    	imul   $0xf100,%eax,%eax
  40159c:	89 44 24 0c          	mov    %eax,0xc(%rsp)
  4015a0:	8b 44 24 20          	mov    0x20(%rsp),%eax
  4015a4:	69 c0 53 28 00 00    	imul   $0x2853,%eax,%eax
  4015aa:	89 44 24 20          	mov    %eax,0x20(%rsp)
  4015ae:	8b 44 24 04          	mov    0x4(%rsp),%eax
  4015b2:	69 c0 0a a6 00 00    	imul   $0xa60a,%eax,%eax
  4015b8:	89 44 24 04          	mov    %eax,0x4(%rsp)
  4015bc:	8b 44 24 24          	mov    0x24(%rsp),%eax
  4015c0:	69 c0 e5 ac 00 00    	imul   $0xace5,%eax,%eax
  4015c6:	89 44 24 24          	mov    %eax,0x24(%rsp)
  4015ca:	8b 44 24 04          	mov    0x4(%rsp),%eax
  4015ce:	69 c0 95 ba 00 00    	imul   $0xba95,%eax,%eax
  4015d4:	89 44 24 04          	mov    %eax,0x4(%rsp)
  4015d8:	8b 44 24 14          	mov    0x14(%rsp),%eax
  4015dc:	69 c0 5c 0e 00 00    	imul   $0xe5c,%eax,%eax
  4015e2:	89 44 24 14          	mov    %eax,0x14(%rsp)
  4015e6:	8b 44 24 1c          	mov    0x1c(%rsp),%eax
  4015ea:	69 c0 f6 47 00 00    	imul   $0x47f6,%eax,%eax
  4015f0:	89 44 24 1c          	mov    %eax,0x1c(%rsp)
  4015f4:	8b 44 24 24          	mov    0x24(%rsp),%eax
  4015f8:	69 c0 11 12 00 00    	imul   $0x1211,%eax,%eax
  4015fe:	89 44 24 24          	mov    %eax,0x24(%rsp)
  401602:	8b 44 24 20          	mov    0x20(%rsp),%eax
  401606:	69 c0 1b 57 00 00    	imul   $0x571b,%eax,%eax
  40160c:	89 44 24 20          	mov    %eax,0x20(%rsp)
  401610:	8b 44 24 10          	mov    0x10(%rsp),%eax
  401614:	69 c0 42 ac 00 00    	imul   $0xac42,%eax,%eax
  40161a:	89 44 24 10          	mov    %eax,0x10(%rsp)
  40161e:	8b 44 24 18          	mov    0x18(%rsp),%eax
  401622:	69 c0 1c 89 00 00    	imul   $0x891c,%eax,%eax
  401628:	89 44 24 18          	mov    %eax,0x18(%rsp)
  40162c:	8b 44 24 1c          	mov    0x1c(%rsp),%eax
  401630:	69 c0 a9 3c 00 00    	imul   $0x3ca9,%eax,%eax
  401636:	89 44 24 1c          	mov    %eax,0x1c(%rsp)
  40163a:	8b 44 24 04          	mov    0x4(%rsp),%eax
  40163e:	69 c0 8c 49 00 00    	imul   $0x498c,%eax,%eax
  401644:	89 44 24 04          	mov    %eax,0x4(%rsp)
  401648:	8b 44 24 08          	mov    0x8(%rsp),%eax
  40164c:	69 c0 9f d0 00 00    	imul   $0xd09f,%eax,%eax
  401652:	89 44 24 08          	mov    %eax,0x8(%rsp)
  401656:	8b 44 24 20          	mov    0x20(%rsp),%eax
  40165a:	69 c0 96 b4 00 00    	imul   $0xb496,%eax,%eax
  401660:	89 44 24 20          	mov    %eax,0x20(%rsp)
  401664:	8b 44 24 20          	mov    0x20(%rsp),%eax
  401668:	69 c0 fe 2b 00 00    	imul   $0x2bfe,%eax,%eax
  40166e:	89 44 24 20          	mov    %eax,0x20(%rsp)
  401672:	8b 44 24 14          	mov    0x14(%rsp),%eax
  401676:	69 c0 bb 76 00 00    	imul   $0x76bb,%eax,%eax
  40167c:	89 44 24 14          	mov    %eax,0x14(%rsp)
  401680:	8b 44 24 0c          	mov    0xc(%rsp),%eax
  401684:	69 c0 0a ab 00 00    	imul   $0xab0a,%eax,%eax
  40168a:	89 44 24 0c          	mov    %eax,0xc(%rsp)
  40168e:	8b 44 24 1c          	mov    0x1c(%rsp),%eax
  401692:	69 c0 13 99 00 00    	imul   $0x9913,%eax,%eax
  401698:	89 44 24 1c          	mov    %eax,0x1c(%rsp)
  40169c:	8b 44 24 08          	mov    0x8(%rsp),%eax
  4016a0:	69 c0 5c 66 00 00    	imul   $0x665c,%eax,%eax
  4016a6:	89 44 24 08          	mov    %eax,0x8(%rsp)
  4016aa:	8b 44 24 14          	mov    0x14(%rsp),%eax
  4016ae:	69 c0 f3 ad 00 00    	imul   $0xadf3,%eax,%eax
  4016b4:	89 44 24 14          	mov    %eax,0x14(%rsp)
  4016b8:	8b 44 24 1c          	mov    0x1c(%rsp),%eax
  4016bc:	69 c0 aa f8 00 00    	imul   $0xf8aa,%eax,%eax
  4016c2:	89 44 24 1c          	mov    %eax,0x1c(%rsp)
  4016c6:	8b 44 24 04          	mov    0x4(%rsp),%eax
  4016ca:	6b c0 0e             	imul   $0xe,%eax,%eax
  4016cd:	89 44 24 04          	mov    %eax,0x4(%rsp)
  4016d1:	8b 44 24 14          	mov    0x14(%rsp),%eax
  4016d5:	69 c0 69 bf 00 00    	imul   $0xbf69,%eax,%eax
  4016db:	89 44 24 14          	mov    %eax,0x14(%rsp)
  4016df:	8b 44 24 14          	mov    0x14(%rsp),%eax
  4016e3:	69 c0 f7 a5 00 00    	imul   $0xa5f7,%eax,%eax
  4016e9:	89 44 24 14          	mov    %eax,0x14(%rsp)
  4016ed:	8b 04 24             	mov    (%rsp),%eax
  4016f0:	69 c0 35 e9 00 00    	imul   $0xe935,%eax,%eax
  4016f6:	89 04 24             	mov    %eax,(%rsp)
  4016f9:	8b 44 24 24          	mov    0x24(%rsp),%eax
  4016fd:	69 c0 09 95 00 00    	imul   $0x9509,%eax,%eax
  401703:	89 44 24 24          	mov    %eax,0x24(%rsp)
  401707:	8b 44 24 1c          	mov    0x1c(%rsp),%eax
  40170b:	69 c0 bb 95 00 00    	imul   $0x95bb,%eax,%eax
  401711:	89 44 24 1c          	mov    %eax,0x1c(%rsp)
  401715:	8b 44 24 04          	mov    0x4(%rsp),%eax
  401719:	69 c0 b2 2f 00 00    	imul   $0x2fb2,%eax,%eax
  40171f:	89 44 24 04          	mov    %eax,0x4(%rsp)
  401723:	8b 04 24             	mov    (%rsp),%eax
  401726:	69 c0 2b 3b 00 00    	imul   $0x3b2b,%eax,%eax
  40172c:	89 04 24             	mov    %eax,(%rsp)
  40172f:	8b 44 24 1c          	mov    0x1c(%rsp),%eax
  401733:	69 c0 11 48 00 00    	imul   $0x4811,%eax,%eax
  401739:	89 44 24 1c          	mov    %eax,0x1c(%rsp)
  40173d:	8b 44 24 18          	mov    0x18(%rsp),%eax
  401741:	69 c0 de 89 00 00    	imul   $0x89de,%eax,%eax
  401747:	89 44 24 18          	mov    %eax,0x18(%rsp)
  40174b:	8b 44 24 20          	mov    0x20(%rsp),%eax
  40174f:	69 c0 7b bb 00 00    	imul   $0xbb7b,%eax,%eax
  401755:	89 44 24 20          	mov    %eax,0x20(%rsp)
  401759:	8b 44 24 10          	mov    0x10(%rsp),%eax
  40175d:	69 c0 91 db 00 00    	imul   $0xdb91,%eax,%eax
  401763:	89 44 24 10          	mov    %eax,0x10(%rsp)
  401767:	8b 44 24 10          	mov    0x10(%rsp),%eax
  40176b:	69 c0 d7 8c 00 00    	imul   $0x8cd7,%eax,%eax
  401771:	89 44 24 10          	mov    %eax,0x10(%rsp)
  401775:	8b 44 24 20          	mov    0x20(%rsp),%eax
  401779:	69 c0 36 a8 00 00    	imul   $0xa836,%eax,%eax
  40177f:	89 44 24 20          	mov    %eax,0x20(%rsp)
  401783:	8b 44 24 18          	mov    0x18(%rsp),%eax
  401787:	69 c0 a7 b6 00 00    	imul   $0xb6a7,%eax,%eax
  40178d:	89 44 24 18          	mov    %eax,0x18(%rsp)
  401791:	8b 44 24 1c          	mov    0x1c(%rsp),%eax
  401795:	69 c0 b4 30 00 00    	imul   $0x30b4,%eax,%eax
  40179b:	89 44 24 1c          	mov    %eax,0x1c(%rsp)
  40179f:	8b 44 24 1c          	mov    0x1c(%rsp),%eax
  4017a3:	69 c0 9b ab 00 00    	imul   $0xab9b,%eax,%eax
  4017a9:	89 44 24 1c          	mov    %eax,0x1c(%rsp)
  4017ad:	8b 44 24 24          	mov    0x24(%rsp),%eax
  4017b1:	69 c0 de 0d 00 00    	imul   $0xdde,%eax,%eax
  4017b7:	89 44 24 24          	mov    %eax,0x24(%rsp)
  4017bb:	8b 44 24 08          	mov    0x8(%rsp),%eax
  4017bf:	69 c0 c8 5b 00 00    	imul   $0x5bc8,%eax,%eax
  4017c5:	89 44 24 08          	mov    %eax,0x8(%rsp)
  4017c9:	8b 44 24 0c          	mov    0xc(%rsp),%eax
  4017cd:	69 c0 a7 80 00 00    	imul   $0x80a7,%eax,%eax
  4017d3:	89 44 24 0c          	mov    %eax,0xc(%rsp)
  4017d7:	8b 04 24             	mov    (%rsp),%eax
  4017da:	69 c0 f3 1c 00 00    	imul   $0x1cf3,%eax,%eax
  4017e0:	89 04 24             	mov    %eax,(%rsp)
  4017e3:	8b 44 24 14          	mov    0x14(%rsp),%eax
  4017e7:	69 c0 67 cf 00 00    	imul   $0xcf67,%eax,%eax
  4017ed:	89 44 24 14          	mov    %eax,0x14(%rsp)
  4017f1:	8b 44 24 10          	mov    0x10(%rsp),%eax
  4017f5:	69 c0 bd 7c 00 00    	imul   $0x7cbd,%eax,%eax
  4017fb:	89 44 24 10          	mov    %eax,0x10(%rsp)
  4017ff:	8b 44 24 08          	mov    0x8(%rsp),%eax
  401803:	69 c0 ed 30 00 00    	imul   $0x30ed,%eax,%eax
  401809:	89 44 24 08          	mov    %eax,0x8(%rsp)
  40180d:	8b 44 24 1c          	mov    0x1c(%rsp),%eax
  401811:	69 c0 bc 71 00 00    	imul   $0x71bc,%eax,%eax
  401817:	89 44 24 1c          	mov    %eax,0x1c(%rsp)
  40181b:	ba 00 00 00 00       	mov    $0x0,%edx
  401820:	b8 00 00 00 00       	mov    $0x0,%eax
  401825:	eb 0a                	jmp    401831 <scramble+0x4f2>
  401827:	89 d1                	mov    %edx,%ecx
  401829:	8b 0c 8c             	mov    (%rsp,%rcx,4),%ecx
  40182c:	01 c8                	add    %ecx,%eax
  40182e:	83 c2 01             	add    $0x1,%edx
  401831:	83 fa 09             	cmp    $0x9,%edx
  401834:	76 f1                	jbe    401827 <scramble+0x4e8>
  401836:	48 8b 74 24 28       	mov    0x28(%rsp),%rsi
  40183b:	64 48 33 34 25 28 00 	xor    %fs:0x28,%rsi
  401842:	00 00 
  401844:	75 05                	jne    40184b <scramble+0x50c>
  401846:	48 83 c4 38          	add    $0x38,%rsp
  40184a:	c3                   	retq   
  40184b:	e8 90 f4 ff ff       	callq  400ce0 <__stack_chk_fail@plt>

0000000000401850 <getbuf>:
  401850:	48 83 ec 18          	sub    $0x18,%rsp
  401854:	48 89 e7             	mov    %rsp,%rdi
  401857:	e8 9d 03 00 00       	callq  401bf9 <Gets>
  40185c:	b8 01 00 00 00       	mov    $0x1,%eax
  401861:	48 83 c4 18          	add    $0x18,%rsp
  401865:	c3                   	retq   

0000000000401866 <touch1>:
  401866:	48 83 ec 08          	sub    $0x8,%rsp
  40186a:	c7 05 88 3c 20 00 01 	movl   $0x1,0x203c88(%rip)        # 6054fc <vlevel>
  401871:	00 00 00 
  401874:	bf ea 32 40 00       	mov    $0x4032ea,%edi
  401879:	e8 42 f4 ff ff       	callq  400cc0 <puts@plt>
  40187e:	bf 01 00 00 00       	mov    $0x1,%edi
  401883:	e8 c6 05 00 00       	callq  401e4e <validate>
  401888:	bf 00 00 00 00       	mov    $0x0,%edi
  40188d:	e8 9e f5 ff ff       	callq  400e30 <exit@plt>

0000000000401892 <touch2>:
  401892:	48 83 ec 08          	sub    $0x8,%rsp
  401896:	89 fa                	mov    %edi,%edx
  401898:	c7 05 5a 3c 20 00 02 	movl   $0x2,0x203c5a(%rip)        # 6054fc <vlevel>
  40189f:	00 00 00 
  4018a2:	39 3d 5c 3c 20 00    	cmp    %edi,0x203c5c(%rip)        # 605504 <cookie>
  4018a8:	74 28                	je     4018d2 <touch2+0x40>
  4018aa:	be 38 33 40 00       	mov    $0x403338,%esi
  4018af:	bf 01 00 00 00       	mov    $0x1,%edi
  4018b4:	b8 00 00 00 00       	mov    $0x0,%eax
  4018b9:	e8 22 f5 ff ff       	callq  400de0 <__printf_chk@plt>
  4018be:	bf 02 00 00 00       	mov    $0x2,%edi
  4018c3:	e8 4b 06 00 00       	callq  401f13 <fail>
  4018c8:	bf 00 00 00 00       	mov    $0x0,%edi
  4018cd:	e8 5e f5 ff ff       	callq  400e30 <exit@plt>
  4018d2:	be 10 33 40 00       	mov    $0x403310,%esi
  4018d7:	bf 01 00 00 00       	mov    $0x1,%edi
  4018dc:	b8 00 00 00 00       	mov    $0x0,%eax
  4018e1:	e8 fa f4 ff ff       	callq  400de0 <__printf_chk@plt>
  4018e6:	bf 02 00 00 00       	mov    $0x2,%edi
  4018eb:	e8 5e 05 00 00       	callq  401e4e <validate>
  4018f0:	eb d6                	jmp    4018c8 <touch2+0x36>

00000000004018f2 <hexmatch>:
  4018f2:	41 54                	push   %r12
  4018f4:	55                   	push   %rbp
  4018f5:	53                   	push   %rbx
  4018f6:	48 83 c4 80          	add    $0xffffffffffffff80,%rsp
  4018fa:	89 fd                	mov    %edi,%ebp
  4018fc:	48 89 f3             	mov    %rsi,%rbx
  4018ff:	64 48 8b 04 25 28 00 	mov    %fs:0x28,%rax
  401906:	00 00 
  401908:	48 89 44 24 78       	mov    %rax,0x78(%rsp)
  40190d:	31 c0                	xor    %eax,%eax
  40190f:	e8 8c f4 ff ff       	callq  400da0 <random@plt>
  401914:	48 89 c1             	mov    %rax,%rcx
  401917:	48 ba 0b d7 a3 70 3d 	movabs $0xa3d70a3d70a3d70b,%rdx
  40191e:	0a d7 a3 
  401921:	48 f7 ea             	imul   %rdx
  401924:	48 01 ca             	add    %rcx,%rdx
  401927:	48 c1 fa 06          	sar    $0x6,%rdx
  40192b:	48 89 c8             	mov    %rcx,%rax
  40192e:	48 c1 f8 3f          	sar    $0x3f,%rax
  401932:	48 29 c2             	sub    %rax,%rdx
  401935:	48 8d 04 92          	lea    (%rdx,%rdx,4),%rax
  401939:	48 8d 14 80          	lea    (%rax,%rax,4),%rdx
  40193d:	48 8d 04 95 00 00 00 	lea    0x0(,%rdx,4),%rax
  401944:	00 
  401945:	48 29 c1             	sub    %rax,%rcx
  401948:	4c 8d 24 0c          	lea    (%rsp,%rcx,1),%r12
  40194c:	41 89 e8             	mov    %ebp,%r8d
  40194f:	b9 07 33 40 00       	mov    $0x403307,%ecx
  401954:	48 c7 c2 ff ff ff ff 	mov    $0xffffffffffffffff,%rdx
  40195b:	be 01 00 00 00       	mov    $0x1,%esi
  401960:	4c 89 e7             	mov    %r12,%rdi
  401963:	b8 00 00 00 00       	mov    $0x0,%eax
  401968:	e8 f3 f4 ff ff       	callq  400e60 <__sprintf_chk@plt>
  40196d:	ba 09 00 00 00       	mov    $0x9,%edx
  401972:	4c 89 e6             	mov    %r12,%rsi
  401975:	48 89 df             	mov    %rbx,%rdi
  401978:	e8 23 f3 ff ff       	callq  400ca0 <strncmp@plt>
  40197d:	85 c0                	test   %eax,%eax
  40197f:	0f 94 c0             	sete   %al
  401982:	48 8b 5c 24 78       	mov    0x78(%rsp),%rbx
  401987:	64 48 33 1c 25 28 00 	xor    %fs:0x28,%rbx
  40198e:	00 00 
  401990:	75 0c                	jne    40199e <hexmatch+0xac>
  401992:	0f b6 c0             	movzbl %al,%eax
  401995:	48 83 ec 80          	sub    $0xffffffffffffff80,%rsp
  401999:	5b                   	pop    %rbx
  40199a:	5d                   	pop    %rbp
  40199b:	41 5c                	pop    %r12
  40199d:	c3                   	retq   
  40199e:	e8 3d f3 ff ff       	callq  400ce0 <__stack_chk_fail@plt>

00000000004019a3 <touch3>:
  4019a3:	53                   	push   %rbx
  4019a4:	48 89 fb             	mov    %rdi,%rbx
  4019a7:	c7 05 4b 3b 20 00 03 	movl   $0x3,0x203b4b(%rip)        # 6054fc <vlevel>
  4019ae:	00 00 00 
  4019b1:	48 89 fe             	mov    %rdi,%rsi
  4019b4:	8b 3d 4a 3b 20 00    	mov    0x203b4a(%rip),%edi        # 605504 <cookie>
  4019ba:	e8 33 ff ff ff       	callq  4018f2 <hexmatch>
  4019bf:	85 c0                	test   %eax,%eax
  4019c1:	74 2b                	je     4019ee <touch3+0x4b>
  4019c3:	48 89 da             	mov    %rbx,%rdx
  4019c6:	be 60 33 40 00       	mov    $0x403360,%esi
  4019cb:	bf 01 00 00 00       	mov    $0x1,%edi
  4019d0:	b8 00 00 00 00       	mov    $0x0,%eax
  4019d5:	e8 06 f4 ff ff       	callq  400de0 <__printf_chk@plt>
  4019da:	bf 03 00 00 00       	mov    $0x3,%edi
  4019df:	e8 6a 04 00 00       	callq  401e4e <validate>
  4019e4:	bf 00 00 00 00       	mov    $0x0,%edi
  4019e9:	e8 42 f4 ff ff       	callq  400e30 <exit@plt>
  4019ee:	48 89 da             	mov    %rbx,%rdx
  4019f1:	be 88 33 40 00       	mov    $0x403388,%esi
  4019f6:	bf 01 00 00 00       	mov    $0x1,%edi
  4019fb:	b8 00 00 00 00       	mov    $0x0,%eax
  401a00:	e8 db f3 ff ff       	callq  400de0 <__printf_chk@plt>
  401a05:	bf 03 00 00 00       	mov    $0x3,%edi
  401a0a:	e8 04 05 00 00       	callq  401f13 <fail>
  401a0f:	eb d3                	jmp    4019e4 <touch3+0x41>

0000000000401a11 <test>:
  401a11:	48 83 ec 08          	sub    $0x8,%rsp
  401a15:	b8 00 00 00 00       	mov    $0x0,%eax
  401a1a:	e8 31 fe ff ff       	callq  401850 <getbuf>
  401a1f:	89 c2                	mov    %eax,%edx
  401a21:	be b0 33 40 00       	mov    $0x4033b0,%esi
  401a26:	bf 01 00 00 00       	mov    $0x1,%edi
  401a2b:	b8 00 00 00 00       	mov    $0x0,%eax
  401a30:	e8 ab f3 ff ff       	callq  400de0 <__printf_chk@plt>
  401a35:	48 83 c4 08          	add    $0x8,%rsp
  401a39:	c3                   	retq   

0000000000401a3a <start_farm>:
  401a3a:	b8 01 00 00 00       	mov    $0x1,%eax
  401a3f:	c3                   	retq   

0000000000401a40 <addval_400>:
  401a40:	8d 87 48 89 c7 c3    	lea    -0x3c3876b8(%rdi),%eax
  401a46:	c3                   	retq   

0000000000401a47 <getval_381>:
  401a47:	b8 8f 58 89 c7       	mov    $0xc789588f,%eax
  401a4c:	c3                   	retq   

0000000000401a4d <setval_384>:
  401a4d:	c7 07 e4 4c 89 c7    	movl   $0xc7894ce4,(%rdi)
  401a53:	c3                   	retq   

0000000000401a54 <getval_364>:
  401a54:	b8 80 b9 58 90       	mov    $0x9058b980,%eax
  401a59:	c3                   	retq   

0000000000401a5a <getval_296>:
  401a5a:	b8 ff 48 89 c7       	mov    $0xc78948ff,%eax
  401a5f:	c3                   	retq   

0000000000401a60 <addval_459>:
  401a60:	8d 87 5e ad 6f 50    	lea    0x506fad5e(%rdi),%eax
  401a66:	c3                   	retq   

0000000000401a67 <addval_247>:
  401a67:	8d 87 22 04 58 c7    	lea    -0x38a7fbde(%rdi),%eax
  401a6d:	c3                   	retq   

0000000000401a6e <setval_144>:
  401a6e:	c7 07 0c bd a8 58    	movl   $0x58a8bd0c,(%rdi)
  401a74:	c3                   	retq   

0000000000401a75 <mid_farm>:
  401a75:	b8 01 00 00 00       	mov    $0x1,%eax
  401a7a:	c3                   	retq   

0000000000401a7b <add_xy>:
  401a7b:	48 8d 04 37          	lea    (%rdi,%rsi,1),%rax
  401a7f:	c3                   	retq   

0000000000401a80 <getval_488>:
  401a80:	b8 89 d1 48 db       	mov    $0xdb48d189,%eax
  401a85:	c3                   	retq   

0000000000401a86 <getval_367>:
  401a86:	b8 00 4b 89 ce       	mov    $0xce894b00,%eax
  401a8b:	c3                   	retq   

0000000000401a8c <getval_270>:
  401a8c:	b8 97 68 89 e0       	mov    $0xe0896897,%eax
  401a91:	c3                   	retq   

0000000000401a92 <addval_156>:
  401a92:	8d 87 89 c2 90 90    	lea    -0x6f6f3d77(%rdi),%eax
  401a98:	c3                   	retq   

0000000000401a99 <setval_168>:
  401a99:	c7 07 89 d1 08 d2    	movl   $0xd208d189,(%rdi)
  401a9f:	c3                   	retq   

0000000000401aa0 <addval_207>:
  401aa0:	8d 87 89 d1 60 c9    	lea    -0x369f2e77(%rdi),%eax
  401aa6:	c3                   	retq   

0000000000401aa7 <setval_234>:
  401aa7:	c7 07 48 89 e0 94    	movl   $0x94e08948,(%rdi)
  401aad:	c3                   	retq   

0000000000401aae <addval_343>:
  401aae:	8d 87 2b 1a 89 ce    	lea    -0x3176e5d5(%rdi),%eax
  401ab4:	c3                   	retq   

0000000000401ab5 <getval_329>:
  401ab5:	b8 89 ce c7 ee       	mov    $0xeec7ce89,%eax
  401aba:	c3                   	retq   

0000000000401abb <setval_484>:
  401abb:	c7 07 89 c2 28 db    	movl   $0xdb28c289,(%rdi)
  401ac1:	c3                   	retq   

0000000000401ac2 <setval_454>:
  401ac2:	c7 07 48 89 e0 c3    	movl   $0xc3e08948,(%rdi)
  401ac8:	c3                   	retq   

0000000000401ac9 <getval_137>:
  401ac9:	b8 89 c2 91 90       	mov    $0x9091c289,%eax
  401ace:	c3                   	retq   

0000000000401acf <getval_342>:
  401acf:	b8 c9 d1 90 c3       	mov    $0xc390d1c9,%eax
  401ad4:	c3                   	retq   

0000000000401ad5 <getval_375>:
  401ad5:	b8 89 ce 94 c9       	mov    $0xc994ce89,%eax
  401ada:	c3                   	retq   

0000000000401adb <setval_236>:
  401adb:	c7 07 8b d1 08 d2    	movl   $0xd208d18b,(%rdi)
  401ae1:	c3                   	retq   

0000000000401ae2 <getval_455>:
  401ae2:	b8 48 89 e0 94       	mov    $0x94e08948,%eax
  401ae7:	c3                   	retq   

0000000000401ae8 <addval_167>:
  401ae8:	8d 87 a9 c2 c3 8d    	lea    -0x723c3d57(%rdi),%eax
  401aee:	c3                   	retq   

0000000000401aef <setval_277>:
  401aef:	c7 07 ad 48 89 e0    	movl   $0xe08948ad,(%rdi)
  401af5:	c3                   	retq   

0000000000401af6 <addval_127>:
  401af6:	8d 87 8d ce 84 d2    	lea    -0x2d7b3173(%rdi),%eax
  401afc:	c3                   	retq   

0000000000401afd <getval_425>:
  401afd:	b8 88 ce 38 c0       	mov    $0xc038ce88,%eax
  401b02:	c3                   	retq   

0000000000401b03 <addval_346>:
  401b03:	8d 87 89 ce 30 c0    	lea    -0x3fcf3177(%rdi),%eax
  401b09:	c3                   	retq   

0000000000401b0a <setval_352>:
  401b0a:	c7 07 09 c2 38 c9    	movl   $0xc938c209,(%rdi)
  401b10:	c3                   	retq   

0000000000401b11 <getval_117>:
  401b11:	b8 89 c2 38 c9       	mov    $0xc938c289,%eax
  401b16:	c3                   	retq   

0000000000401b17 <addval_311>:
  401b17:	8d 87 89 d1 20 db    	lea    -0x24df2e77(%rdi),%eax
  401b1d:	c3                   	retq   

0000000000401b1e <setval_490>:
  401b1e:	c7 07 81 d1 90 c3    	movl   $0xc390d181,(%rdi)
  401b24:	c3                   	retq   

0000000000401b25 <getval_150>:
  401b25:	b8 90 89 c2 91       	mov    $0x91c28990,%eax
  401b2a:	c3                   	retq   

0000000000401b2b <getval_169>:
  401b2b:	b8 68 89 e0 c3       	mov    $0xc3e08968,%eax
  401b30:	c3                   	retq   

0000000000401b31 <addval_123>:
  401b31:	8d 87 8d d1 84 c9    	lea    -0x367b2e73(%rdi),%eax
  401b37:	c3                   	retq   

0000000000401b38 <addval_111>:
  401b38:	8d 87 e1 48 a9 e0    	lea    -0x1f56b71f(%rdi),%eax
  401b3e:	c3                   	retq   

0000000000401b3f <getval_136>:
  401b3f:	b8 48 8d e0 90       	mov    $0x90e08d48,%eax
  401b44:	c3                   	retq   

0000000000401b45 <setval_267>:
  401b45:	c7 07 99 ce 20 d2    	movl   $0xd220ce99,(%rdi)
  401b4b:	c3                   	retq   

0000000000401b4c <setval_389>:
  401b4c:	c7 07 89 c2 28 db    	movl   $0xdb28c289,(%rdi)
  401b52:	c3                   	retq   

0000000000401b53 <end_farm>:
  401b53:	b8 01 00 00 00       	mov    $0x1,%eax
  401b58:	c3                   	retq   

0000000000401b59 <save_char>:
  401b59:	8b 05 c5 45 20 00    	mov    0x2045c5(%rip),%eax        # 606124 <gets_cnt>
  401b5f:	3d ff 03 00 00       	cmp    $0x3ff,%eax
  401b64:	7f 49                	jg     401baf <save_char+0x56>
  401b66:	89 f9                	mov    %edi,%ecx
  401b68:	c0 e9 04             	shr    $0x4,%cl
  401b6b:	8d 14 40             	lea    (%rax,%rax,2),%edx
  401b6e:	83 e1 0f             	and    $0xf,%ecx
  401b71:	0f b6 b1 d0 36 40 00 	movzbl 0x4036d0(%rcx),%esi
  401b78:	48 63 ca             	movslq %edx,%rcx
  401b7b:	40 88 b1 20 55 60 00 	mov    %sil,0x605520(%rcx)
  401b82:	8d 4a 01             	lea    0x1(%rdx),%ecx
  401b85:	83 e7 0f             	and    $0xf,%edi
  401b88:	0f b6 b7 d0 36 40 00 	movzbl 0x4036d0(%rdi),%esi
  401b8f:	48 63 c9             	movslq %ecx,%rcx
  401b92:	40 88 b1 20 55 60 00 	mov    %sil,0x605520(%rcx)
  401b99:	83 c2 02             	add    $0x2,%edx
  401b9c:	48 63 d2             	movslq %edx,%rdx
  401b9f:	c6 82 20 55 60 00 20 	movb   $0x20,0x605520(%rdx)
  401ba6:	83 c0 01             	add    $0x1,%eax
  401ba9:	89 05 75 45 20 00    	mov    %eax,0x204575(%rip)        # 606124 <gets_cnt>
  401baf:	f3 c3                	repz retq 

0000000000401bb1 <save_term>:
  401bb1:	8b 05 6d 45 20 00    	mov    0x20456d(%rip),%eax        # 606124 <gets_cnt>
  401bb7:	8d 04 40             	lea    (%rax,%rax,2),%eax
  401bba:	48 98                	cltq   
  401bbc:	c6 80 20 55 60 00 00 	movb   $0x0,0x605520(%rax)
  401bc3:	c3                   	retq   

0000000000401bc4 <check_fail>:
  401bc4:	48 83 ec 08          	sub    $0x8,%rsp
  401bc8:	0f be 15 59 45 20 00 	movsbl 0x204559(%rip),%edx        # 606128 <target_prefix>
  401bcf:	41 b8 20 55 60 00    	mov    $0x605520,%r8d
  401bd5:	8b 0d 1d 39 20 00    	mov    0x20391d(%rip),%ecx        # 6054f8 <check_level>
  401bdb:	be d3 33 40 00       	mov    $0x4033d3,%esi
  401be0:	bf 01 00 00 00       	mov    $0x1,%edi
  401be5:	b8 00 00 00 00       	mov    $0x0,%eax
  401bea:	e8 f1 f1 ff ff       	callq  400de0 <__printf_chk@plt>
  401bef:	bf 01 00 00 00       	mov    $0x1,%edi
  401bf4:	e8 37 f2 ff ff       	callq  400e30 <exit@plt>

0000000000401bf9 <Gets>:
  401bf9:	41 54                	push   %r12
  401bfb:	55                   	push   %rbp
  401bfc:	53                   	push   %rbx
  401bfd:	49 89 fc             	mov    %rdi,%r12
  401c00:	c7 05 1a 45 20 00 00 	movl   $0x0,0x20451a(%rip)        # 606124 <gets_cnt>
  401c07:	00 00 00 
  401c0a:	48 89 fb             	mov    %rdi,%rbx
  401c0d:	eb 11                	jmp    401c20 <Gets+0x27>
  401c0f:	48 8d 6b 01          	lea    0x1(%rbx),%rbp
  401c13:	88 03                	mov    %al,(%rbx)
  401c15:	0f b6 f8             	movzbl %al,%edi
  401c18:	e8 3c ff ff ff       	callq  401b59 <save_char>
  401c1d:	48 89 eb             	mov    %rbp,%rbx
  401c20:	48 8b 3d c9 38 20 00 	mov    0x2038c9(%rip),%rdi        # 6054f0 <infile>
  401c27:	e8 84 f1 ff ff       	callq  400db0 <_IO_getc@plt>
  401c2c:	83 f8 ff             	cmp    $0xffffffff,%eax
  401c2f:	74 05                	je     401c36 <Gets+0x3d>
  401c31:	83 f8 0a             	cmp    $0xa,%eax
  401c34:	75 d9                	jne    401c0f <Gets+0x16>
  401c36:	c6 03 00             	movb   $0x0,(%rbx)
  401c39:	b8 00 00 00 00       	mov    $0x0,%eax
  401c3e:	e8 6e ff ff ff       	callq  401bb1 <save_term>
  401c43:	4c 89 e0             	mov    %r12,%rax
  401c46:	5b                   	pop    %rbx
  401c47:	5d                   	pop    %rbp
  401c48:	41 5c                	pop    %r12
  401c4a:	c3                   	retq   

0000000000401c4b <notify_server>:
  401c4b:	55                   	push   %rbp
  401c4c:	53                   	push   %rbx
  401c4d:	48 81 ec 18 40 00 00 	sub    $0x4018,%rsp
  401c54:	64 48 8b 04 25 28 00 	mov    %fs:0x28,%rax
  401c5b:	00 00 
  401c5d:	48 89 84 24 08 40 00 	mov    %rax,0x4008(%rsp)
  401c64:	00 
  401c65:	31 c0                	xor    %eax,%eax
  401c67:	83 3d 9a 38 20 00 00 	cmpl   $0x0,0x20389a(%rip)        # 605508 <is_checker>
  401c6e:	0f 85 c9 00 00 00    	jne    401d3d <notify_server+0xf2>
  401c74:	89 fb                	mov    %edi,%ebx
  401c76:	8b 05 a8 44 20 00    	mov    0x2044a8(%rip),%eax        # 606124 <gets_cnt>
  401c7c:	83 c0 64             	add    $0x64,%eax
  401c7f:	3d 00 20 00 00       	cmp    $0x2000,%eax
  401c84:	0f 8f d4 00 00 00    	jg     401d5e <notify_server+0x113>
  401c8a:	0f be 05 97 44 20 00 	movsbl 0x204497(%rip),%eax        # 606128 <target_prefix>
  401c91:	83 3d f0 37 20 00 00 	cmpl   $0x0,0x2037f0(%rip)        # 605488 <notify>
  401c98:	0f 84 de 00 00 00    	je     401d7c <notify_server+0x131>
  401c9e:	8b 15 5c 38 20 00    	mov    0x20385c(%rip),%edx        # 605500 <authkey>
  401ca4:	85 db                	test   %ebx,%ebx
  401ca6:	0f 84 da 00 00 00    	je     401d86 <notify_server+0x13b>
  401cac:	bd e9 33 40 00       	mov    $0x4033e9,%ebp
  401cb1:	68 20 55 60 00       	pushq  $0x605520
  401cb6:	56                   	push   %rsi
  401cb7:	50                   	push   %rax
  401cb8:	52                   	push   %rdx
  401cb9:	49 89 e9             	mov    %rbp,%r9
  401cbc:	44 8b 05 85 34 20 00 	mov    0x203485(%rip),%r8d        # 605148 <target_id>
  401cc3:	b9 f3 33 40 00       	mov    $0x4033f3,%ecx
  401cc8:	ba 00 20 00 00       	mov    $0x2000,%edx
  401ccd:	be 01 00 00 00       	mov    $0x1,%esi
  401cd2:	48 8d 7c 24 20       	lea    0x20(%rsp),%rdi
  401cd7:	b8 00 00 00 00       	mov    $0x0,%eax
  401cdc:	e8 7f f1 ff ff       	callq  400e60 <__sprintf_chk@plt>
  401ce1:	48 83 c4 20          	add    $0x20,%rsp
  401ce5:	83 3d 9c 37 20 00 00 	cmpl   $0x0,0x20379c(%rip)        # 605488 <notify>
  401cec:	0f 84 d3 00 00 00    	je     401dc5 <notify_server+0x17a>
  401cf2:	85 db                	test   %ebx,%ebx
  401cf4:	0f 84 bc 00 00 00    	je     401db6 <notify_server+0x16b>
  401cfa:	4c 8d 8c 24 00 20 00 	lea    0x2000(%rsp),%r9
  401d01:	00 
  401d02:	41 b8 00 00 00 00    	mov    $0x0,%r8d
  401d08:	48 89 e1             	mov    %rsp,%rcx
  401d0b:	48 8b 15 3e 34 20 00 	mov    0x20343e(%rip),%rdx        # 605150 <lab>
  401d12:	48 8b 35 3f 34 20 00 	mov    0x20343f(%rip),%rsi        # 605158 <course>
  401d19:	48 8b 3d 20 34 20 00 	mov    0x203420(%rip),%rdi        # 605140 <user_id>
  401d20:	e8 31 11 00 00       	callq  402e56 <driver_post>
  401d25:	85 c0                	test   %eax,%eax
  401d27:	78 67                	js     401d90 <notify_server+0x145>
  401d29:	bf 38 35 40 00       	mov    $0x403538,%edi
  401d2e:	e8 8d ef ff ff       	callq  400cc0 <puts@plt>
  401d33:	bf 1b 34 40 00       	mov    $0x40341b,%edi
  401d38:	e8 83 ef ff ff       	callq  400cc0 <puts@plt>
  401d3d:	48 8b 84 24 08 40 00 	mov    0x4008(%rsp),%rax
  401d44:	00 
  401d45:	64 48 33 04 25 28 00 	xor    %fs:0x28,%rax
  401d4c:	00 00 
  401d4e:	0f 85 f5 00 00 00    	jne    401e49 <notify_server+0x1fe>
  401d54:	48 81 c4 18 40 00 00 	add    $0x4018,%rsp
  401d5b:	5b                   	pop    %rbx
  401d5c:	5d                   	pop    %rbp
  401d5d:	c3                   	retq   
  401d5e:	be 08 35 40 00       	mov    $0x403508,%esi
  401d63:	bf 01 00 00 00       	mov    $0x1,%edi
  401d68:	b8 00 00 00 00       	mov    $0x0,%eax
  401d6d:	e8 6e f0 ff ff       	callq  400de0 <__printf_chk@plt>
  401d72:	bf 01 00 00 00       	mov    $0x1,%edi
  401d77:	e8 b4 f0 ff ff       	callq  400e30 <exit@plt>
  401d7c:	ba ff ff ff ff       	mov    $0xffffffff,%edx
  401d81:	e9 1e ff ff ff       	jmpq   401ca4 <notify_server+0x59>
  401d86:	bd ee 33 40 00       	mov    $0x4033ee,%ebp
  401d8b:	e9 21 ff ff ff       	jmpq   401cb1 <notify_server+0x66>
  401d90:	48 8d 94 24 00 20 00 	lea    0x2000(%rsp),%rdx
  401d97:	00 
  401d98:	be 0f 34 40 00       	mov    $0x40340f,%esi
  401d9d:	bf 01 00 00 00       	mov    $0x1,%edi
  401da2:	b8 00 00 00 00       	mov    $0x0,%eax
  401da7:	e8 34 f0 ff ff       	callq  400de0 <__printf_chk@plt>
  401dac:	bf 01 00 00 00       	mov    $0x1,%edi
  401db1:	e8 7a f0 ff ff       	callq  400e30 <exit@plt>
  401db6:	bf 25 34 40 00       	mov    $0x403425,%edi
  401dbb:	e8 00 ef ff ff       	callq  400cc0 <puts@plt>
  401dc0:	e9 78 ff ff ff       	jmpq   401d3d <notify_server+0xf2>
  401dc5:	48 89 ea             	mov    %rbp,%rdx
  401dc8:	be 70 35 40 00       	mov    $0x403570,%esi
  401dcd:	bf 01 00 00 00       	mov    $0x1,%edi
  401dd2:	b8 00 00 00 00       	mov    $0x0,%eax
  401dd7:	e8 04 f0 ff ff       	callq  400de0 <__printf_chk@plt>
  401ddc:	48 8b 15 5d 33 20 00 	mov    0x20335d(%rip),%rdx        # 605140 <user_id>
  401de3:	be 2c 34 40 00       	mov    $0x40342c,%esi
  401de8:	bf 01 00 00 00       	mov    $0x1,%edi
  401ded:	b8 00 00 00 00       	mov    $0x0,%eax
  401df2:	e8 e9 ef ff ff       	callq  400de0 <__printf_chk@plt>
  401df7:	48 8b 15 5a 33 20 00 	mov    0x20335a(%rip),%rdx        # 605158 <course>
  401dfe:	be 39 34 40 00       	mov    $0x403439,%esi
  401e03:	bf 01 00 00 00       	mov    $0x1,%edi
  401e08:	b8 00 00 00 00       	mov    $0x0,%eax
  401e0d:	e8 ce ef ff ff       	callq  400de0 <__printf_chk@plt>
  401e12:	48 8b 15 37 33 20 00 	mov    0x203337(%rip),%rdx        # 605150 <lab>
  401e19:	be 45 34 40 00       	mov    $0x403445,%esi
  401e1e:	bf 01 00 00 00       	mov    $0x1,%edi
  401e23:	b8 00 00 00 00       	mov    $0x0,%eax
  401e28:	e8 b3 ef ff ff       	callq  400de0 <__printf_chk@plt>
  401e2d:	48 89 e2             	mov    %rsp,%rdx
  401e30:	be 4e 34 40 00       	mov    $0x40344e,%esi
  401e35:	bf 01 00 00 00       	mov    $0x1,%edi
  401e3a:	b8 00 00 00 00       	mov    $0x0,%eax
  401e3f:	e8 9c ef ff ff       	callq  400de0 <__printf_chk@plt>
  401e44:	e9 f4 fe ff ff       	jmpq   401d3d <notify_server+0xf2>
  401e49:	e8 92 ee ff ff       	callq  400ce0 <__stack_chk_fail@plt>

0000000000401e4e <validate>:
  401e4e:	53                   	push   %rbx
  401e4f:	89 fb                	mov    %edi,%ebx
  401e51:	83 3d b0 36 20 00 00 	cmpl   $0x0,0x2036b0(%rip)        # 605508 <is_checker>
  401e58:	74 6b                	je     401ec5 <validate+0x77>
  401e5a:	39 3d 9c 36 20 00    	cmp    %edi,0x20369c(%rip)        # 6054fc <vlevel>
  401e60:	75 2f                	jne    401e91 <validate+0x43>
  401e62:	8b 15 90 36 20 00    	mov    0x203690(%rip),%edx        # 6054f8 <check_level>
  401e68:	39 fa                	cmp    %edi,%edx
  401e6a:	75 39                	jne    401ea5 <validate+0x57>
  401e6c:	0f be 15 b5 42 20 00 	movsbl 0x2042b5(%rip),%edx        # 606128 <target_prefix>
  401e73:	41 b8 20 55 60 00    	mov    $0x605520,%r8d
  401e79:	89 f9                	mov    %edi,%ecx
  401e7b:	be 78 34 40 00       	mov    $0x403478,%esi
  401e80:	bf 01 00 00 00       	mov    $0x1,%edi
  401e85:	b8 00 00 00 00       	mov    $0x0,%eax
  401e8a:	e8 51 ef ff ff       	callq  400de0 <__printf_chk@plt>
  401e8f:	5b                   	pop    %rbx
  401e90:	c3                   	retq   
  401e91:	bf 5a 34 40 00       	mov    $0x40345a,%edi
  401e96:	e8 25 ee ff ff       	callq  400cc0 <puts@plt>
  401e9b:	b8 00 00 00 00       	mov    $0x0,%eax
  401ea0:	e8 1f fd ff ff       	callq  401bc4 <check_fail>
  401ea5:	89 f9                	mov    %edi,%ecx
  401ea7:	be 98 35 40 00       	mov    $0x403598,%esi
  401eac:	bf 01 00 00 00       	mov    $0x1,%edi
  401eb1:	b8 00 00 00 00       	mov    $0x0,%eax
  401eb6:	e8 25 ef ff ff       	callq  400de0 <__printf_chk@plt>
  401ebb:	b8 00 00 00 00       	mov    $0x0,%eax
  401ec0:	e8 ff fc ff ff       	callq  401bc4 <check_fail>
  401ec5:	39 3d 31 36 20 00    	cmp    %edi,0x203631(%rip)        # 6054fc <vlevel>
  401ecb:	74 18                	je     401ee5 <validate+0x97>
  401ecd:	bf 5a 34 40 00       	mov    $0x40345a,%edi
  401ed2:	e8 e9 ed ff ff       	callq  400cc0 <puts@plt>
  401ed7:	89 de                	mov    %ebx,%esi
  401ed9:	bf 00 00 00 00       	mov    $0x0,%edi
  401ede:	e8 68 fd ff ff       	callq  401c4b <notify_server>
  401ee3:	eb aa                	jmp    401e8f <validate+0x41>
  401ee5:	0f be 0d 3c 42 20 00 	movsbl 0x20423c(%rip),%ecx        # 606128 <target_prefix>
  401eec:	89 fa                	mov    %edi,%edx
  401eee:	be c0 35 40 00       	mov    $0x4035c0,%esi
  401ef3:	bf 01 00 00 00       	mov    $0x1,%edi
  401ef8:	b8 00 00 00 00       	mov    $0x0,%eax
  401efd:	e8 de ee ff ff       	callq  400de0 <__printf_chk@plt>
  401f02:	89 de                	mov    %ebx,%esi
  401f04:	bf 01 00 00 00       	mov    $0x1,%edi
  401f09:	e8 3d fd ff ff       	callq  401c4b <notify_server>
  401f0e:	e9 7c ff ff ff       	jmpq   401e8f <validate+0x41>

0000000000401f13 <fail>:
  401f13:	48 83 ec 08          	sub    $0x8,%rsp
  401f17:	83 3d ea 35 20 00 00 	cmpl   $0x0,0x2035ea(%rip)        # 605508 <is_checker>
  401f1e:	75 11                	jne    401f31 <fail+0x1e>
  401f20:	89 fe                	mov    %edi,%esi
  401f22:	bf 00 00 00 00       	mov    $0x0,%edi
  401f27:	e8 1f fd ff ff       	callq  401c4b <notify_server>
  401f2c:	48 83 c4 08          	add    $0x8,%rsp
  401f30:	c3                   	retq   
  401f31:	b8 00 00 00 00       	mov    $0x0,%eax
  401f36:	e8 89 fc ff ff       	callq  401bc4 <check_fail>

0000000000401f3b <bushandler>:
  401f3b:	48 83 ec 08          	sub    $0x8,%rsp
  401f3f:	83 3d c2 35 20 00 00 	cmpl   $0x0,0x2035c2(%rip)        # 605508 <is_checker>
  401f46:	74 14                	je     401f5c <bushandler+0x21>
  401f48:	bf 8d 34 40 00       	mov    $0x40348d,%edi
  401f4d:	e8 6e ed ff ff       	callq  400cc0 <puts@plt>
  401f52:	b8 00 00 00 00       	mov    $0x0,%eax
  401f57:	e8 68 fc ff ff       	callq  401bc4 <check_fail>
  401f5c:	bf f8 35 40 00       	mov    $0x4035f8,%edi
  401f61:	e8 5a ed ff ff       	callq  400cc0 <puts@plt>
  401f66:	bf 97 34 40 00       	mov    $0x403497,%edi
  401f6b:	e8 50 ed ff ff       	callq  400cc0 <puts@plt>
  401f70:	be 00 00 00 00       	mov    $0x0,%esi
  401f75:	bf 00 00 00 00       	mov    $0x0,%edi
  401f7a:	e8 cc fc ff ff       	callq  401c4b <notify_server>
  401f7f:	bf 01 00 00 00       	mov    $0x1,%edi
  401f84:	e8 a7 ee ff ff       	callq  400e30 <exit@plt>

0000000000401f89 <seghandler>:
  401f89:	48 83 ec 08          	sub    $0x8,%rsp
  401f8d:	83 3d 74 35 20 00 00 	cmpl   $0x0,0x203574(%rip)        # 605508 <is_checker>
  401f94:	74 14                	je     401faa <seghandler+0x21>
  401f96:	bf ad 34 40 00       	mov    $0x4034ad,%edi
  401f9b:	e8 20 ed ff ff       	callq  400cc0 <puts@plt>
  401fa0:	b8 00 00 00 00       	mov    $0x0,%eax
  401fa5:	e8 1a fc ff ff       	callq  401bc4 <check_fail>
  401faa:	bf 18 36 40 00       	mov    $0x403618,%edi
  401faf:	e8 0c ed ff ff       	callq  400cc0 <puts@plt>
  401fb4:	bf 97 34 40 00       	mov    $0x403497,%edi
  401fb9:	e8 02 ed ff ff       	callq  400cc0 <puts@plt>
  401fbe:	be 00 00 00 00       	mov    $0x0,%esi
  401fc3:	bf 00 00 00 00       	mov    $0x0,%edi
  401fc8:	e8 7e fc ff ff       	callq  401c4b <notify_server>
  401fcd:	bf 01 00 00 00       	mov    $0x1,%edi
  401fd2:	e8 59 ee ff ff       	callq  400e30 <exit@plt>

0000000000401fd7 <illegalhandler>:
  401fd7:	48 83 ec 08          	sub    $0x8,%rsp
  401fdb:	83 3d 26 35 20 00 00 	cmpl   $0x0,0x203526(%rip)        # 605508 <is_checker>
  401fe2:	74 14                	je     401ff8 <illegalhandler+0x21>
  401fe4:	bf c0 34 40 00       	mov    $0x4034c0,%edi
  401fe9:	e8 d2 ec ff ff       	callq  400cc0 <puts@plt>
  401fee:	b8 00 00 00 00       	mov    $0x0,%eax
  401ff3:	e8 cc fb ff ff       	callq  401bc4 <check_fail>
  401ff8:	bf 40 36 40 00       	mov    $0x403640,%edi
  401ffd:	e8 be ec ff ff       	callq  400cc0 <puts@plt>
  402002:	bf 97 34 40 00       	mov    $0x403497,%edi
  402007:	e8 b4 ec ff ff       	callq  400cc0 <puts@plt>
  40200c:	be 00 00 00 00       	mov    $0x0,%esi
  402011:	bf 00 00 00 00       	mov    $0x0,%edi
  402016:	e8 30 fc ff ff       	callq  401c4b <notify_server>
  40201b:	bf 01 00 00 00       	mov    $0x1,%edi
  402020:	e8 0b ee ff ff       	callq  400e30 <exit@plt>

0000000000402025 <sigalrmhandler>:
  402025:	48 83 ec 08          	sub    $0x8,%rsp
  402029:	83 3d d8 34 20 00 00 	cmpl   $0x0,0x2034d8(%rip)        # 605508 <is_checker>
  402030:	74 14                	je     402046 <sigalrmhandler+0x21>
  402032:	bf d4 34 40 00       	mov    $0x4034d4,%edi
  402037:	e8 84 ec ff ff       	callq  400cc0 <puts@plt>
  40203c:	b8 00 00 00 00       	mov    $0x0,%eax
  402041:	e8 7e fb ff ff       	callq  401bc4 <check_fail>
  402046:	ba 05 00 00 00       	mov    $0x5,%edx
  40204b:	be 70 36 40 00       	mov    $0x403670,%esi
  402050:	bf 01 00 00 00       	mov    $0x1,%edi
  402055:	b8 00 00 00 00       	mov    $0x0,%eax
  40205a:	e8 81 ed ff ff       	callq  400de0 <__printf_chk@plt>
  40205f:	be 00 00 00 00       	mov    $0x0,%esi
  402064:	bf 00 00 00 00       	mov    $0x0,%edi
  402069:	e8 dd fb ff ff       	callq  401c4b <notify_server>
  40206e:	bf 01 00 00 00       	mov    $0x1,%edi
  402073:	e8 b8 ed ff ff       	callq  400e30 <exit@plt>

0000000000402078 <launch>:
  402078:	55                   	push   %rbp
  402079:	48 89 e5             	mov    %rsp,%rbp
  40207c:	48 83 ec 10          	sub    $0x10,%rsp
  402080:	48 89 fa             	mov    %rdi,%rdx
  402083:	64 48 8b 04 25 28 00 	mov    %fs:0x28,%rax
  40208a:	00 00 
  40208c:	48 89 45 f8          	mov    %rax,-0x8(%rbp)
  402090:	31 c0                	xor    %eax,%eax
  402092:	48 8d 47 1e          	lea    0x1e(%rdi),%rax
  402096:	48 83 e0 f0          	and    $0xfffffffffffffff0,%rax
  40209a:	48 29 c4             	sub    %rax,%rsp
  40209d:	48 8d 7c 24 0f       	lea    0xf(%rsp),%rdi
  4020a2:	48 83 e7 f0          	and    $0xfffffffffffffff0,%rdi
  4020a6:	be f4 00 00 00       	mov    $0xf4,%esi
  4020ab:	e8 50 ec ff ff       	callq  400d00 <memset@plt>
  4020b0:	48 8b 05 e9 33 20 00 	mov    0x2033e9(%rip),%rax        # 6054a0 <stdin@@GLIBC_2.2.5>
  4020b7:	48 39 05 32 34 20 00 	cmp    %rax,0x203432(%rip)        # 6054f0 <infile>
  4020be:	74 38                	je     4020f8 <launch+0x80>
  4020c0:	c7 05 32 34 20 00 00 	movl   $0x0,0x203432(%rip)        # 6054fc <vlevel>
  4020c7:	00 00 00 
  4020ca:	b8 00 00 00 00       	mov    $0x0,%eax
  4020cf:	e8 3d f9 ff ff       	callq  401a11 <test>
  4020d4:	83 3d 2d 34 20 00 00 	cmpl   $0x0,0x20342d(%rip)        # 605508 <is_checker>
  4020db:	75 31                	jne    40210e <launch+0x96>
  4020dd:	bf f4 34 40 00       	mov    $0x4034f4,%edi
  4020e2:	e8 d9 eb ff ff       	callq  400cc0 <puts@plt>
  4020e7:	48 8b 45 f8          	mov    -0x8(%rbp),%rax
  4020eb:	64 48 33 04 25 28 00 	xor    %fs:0x28,%rax
  4020f2:	00 00 
  4020f4:	75 2c                	jne    402122 <launch+0xaa>
  4020f6:	c9                   	leaveq 
  4020f7:	c3                   	retq   
  4020f8:	be dc 34 40 00       	mov    $0x4034dc,%esi
  4020fd:	bf 01 00 00 00       	mov    $0x1,%edi
  402102:	b8 00 00 00 00       	mov    $0x0,%eax
  402107:	e8 d4 ec ff ff       	callq  400de0 <__printf_chk@plt>
  40210c:	eb b2                	jmp    4020c0 <launch+0x48>
  40210e:	bf e9 34 40 00       	mov    $0x4034e9,%edi
  402113:	e8 a8 eb ff ff       	callq  400cc0 <puts@plt>
  402118:	b8 00 00 00 00       	mov    $0x0,%eax
  40211d:	e8 a2 fa ff ff       	callq  401bc4 <check_fail>
  402122:	e8 b9 eb ff ff       	callq  400ce0 <__stack_chk_fail@plt>

0000000000402127 <stable_launch>:
  402127:	53                   	push   %rbx
  402128:	48 89 3d b9 33 20 00 	mov    %rdi,0x2033b9(%rip)        # 6054e8 <global_offset>
  40212f:	41 b9 00 00 00 00    	mov    $0x0,%r9d
  402135:	41 b8 00 00 00 00    	mov    $0x0,%r8d
  40213b:	b9 32 01 00 00       	mov    $0x132,%ecx
  402140:	ba 07 00 00 00       	mov    $0x7,%edx
  402145:	be 00 00 10 00       	mov    $0x100000,%esi
  40214a:	bf 00 60 58 55       	mov    $0x55586000,%edi
  40214f:	e8 9c eb ff ff       	callq  400cf0 <mmap@plt>
  402154:	48 89 c3             	mov    %rax,%rbx
  402157:	48 3d 00 60 58 55    	cmp    $0x55586000,%rax
  40215d:	75 43                	jne    4021a2 <stable_launch+0x7b>
  40215f:	48 8d 90 f8 ff 0f 00 	lea    0xffff8(%rax),%rdx
  402166:	48 89 15 c3 3f 20 00 	mov    %rdx,0x203fc3(%rip)        # 606130 <stack_top>
  40216d:	48 89 e0             	mov    %rsp,%rax
  402170:	48 89 d4             	mov    %rdx,%rsp
  402173:	48 89 c2             	mov    %rax,%rdx
  402176:	48 89 15 63 33 20 00 	mov    %rdx,0x203363(%rip)        # 6054e0 <global_save_stack>
  40217d:	48 8b 3d 64 33 20 00 	mov    0x203364(%rip),%rdi        # 6054e8 <global_offset>
  402184:	e8 ef fe ff ff       	callq  402078 <launch>
  402189:	48 8b 05 50 33 20 00 	mov    0x203350(%rip),%rax        # 6054e0 <global_save_stack>
  402190:	48 89 c4             	mov    %rax,%rsp
  402193:	be 00 00 10 00       	mov    $0x100000,%esi
  402198:	48 89 df             	mov    %rbx,%rdi
  40219b:	e8 30 ec ff ff       	callq  400dd0 <munmap@plt>
  4021a0:	5b                   	pop    %rbx
  4021a1:	c3                   	retq   
  4021a2:	be 00 00 10 00       	mov    $0x100000,%esi
  4021a7:	48 89 c7             	mov    %rax,%rdi
  4021aa:	e8 21 ec ff ff       	callq  400dd0 <munmap@plt>
  4021af:	b9 00 60 58 55       	mov    $0x55586000,%ecx
  4021b4:	ba a8 36 40 00       	mov    $0x4036a8,%edx
  4021b9:	be 01 00 00 00       	mov    $0x1,%esi
  4021be:	48 8b 3d fb 32 20 00 	mov    0x2032fb(%rip),%rdi        # 6054c0 <stderr@@GLIBC_2.2.5>
  4021c5:	b8 00 00 00 00       	mov    $0x0,%eax
  4021ca:	e8 81 ec ff ff       	callq  400e50 <__fprintf_chk@plt>
  4021cf:	bf 01 00 00 00       	mov    $0x1,%edi
  4021d4:	e8 57 ec ff ff       	callq  400e30 <exit@plt>

00000000004021d9 <rio_readinitb>:
  4021d9:	89 37                	mov    %esi,(%rdi)
  4021db:	c7 47 04 00 00 00 00 	movl   $0x0,0x4(%rdi)
  4021e2:	48 8d 47 10          	lea    0x10(%rdi),%rax
  4021e6:	48 89 47 08          	mov    %rax,0x8(%rdi)
  4021ea:	c3                   	retq   

00000000004021eb <sigalrm_handler>:
  4021eb:	48 83 ec 08          	sub    $0x8,%rsp
  4021ef:	b9 00 00 00 00       	mov    $0x0,%ecx
  4021f4:	ba e0 36 40 00       	mov    $0x4036e0,%edx
  4021f9:	be 01 00 00 00       	mov    $0x1,%esi
  4021fe:	48 8b 3d bb 32 20 00 	mov    0x2032bb(%rip),%rdi        # 6054c0 <stderr@@GLIBC_2.2.5>
  402205:	b8 00 00 00 00       	mov    $0x0,%eax
  40220a:	e8 41 ec ff ff       	callq  400e50 <__fprintf_chk@plt>
  40220f:	bf 01 00 00 00       	mov    $0x1,%edi
  402214:	e8 17 ec ff ff       	callq  400e30 <exit@plt>

0000000000402219 <rio_writen>:
  402219:	41 55                	push   %r13
  40221b:	41 54                	push   %r12
  40221d:	55                   	push   %rbp
  40221e:	53                   	push   %rbx
  40221f:	48 83 ec 08          	sub    $0x8,%rsp
  402223:	41 89 fc             	mov    %edi,%r12d
  402226:	48 89 f5             	mov    %rsi,%rbp
  402229:	49 89 d5             	mov    %rdx,%r13
  40222c:	48 89 d3             	mov    %rdx,%rbx
  40222f:	eb 06                	jmp    402237 <rio_writen+0x1e>
  402231:	48 29 c3             	sub    %rax,%rbx
  402234:	48 01 c5             	add    %rax,%rbp
  402237:	48 85 db             	test   %rbx,%rbx
  40223a:	74 24                	je     402260 <rio_writen+0x47>
  40223c:	48 89 da             	mov    %rbx,%rdx
  40223f:	48 89 ee             	mov    %rbp,%rsi
  402242:	44 89 e7             	mov    %r12d,%edi
  402245:	e8 86 ea ff ff       	callq  400cd0 <write@plt>
  40224a:	48 85 c0             	test   %rax,%rax
  40224d:	7f e2                	jg     402231 <rio_writen+0x18>
  40224f:	e8 2c ea ff ff       	callq  400c80 <__errno_location@plt>
  402254:	83 38 04             	cmpl   $0x4,(%rax)
  402257:	75 15                	jne    40226e <rio_writen+0x55>
  402259:	b8 00 00 00 00       	mov    $0x0,%eax
  40225e:	eb d1                	jmp    402231 <rio_writen+0x18>
  402260:	4c 89 e8             	mov    %r13,%rax
  402263:	48 83 c4 08          	add    $0x8,%rsp
  402267:	5b                   	pop    %rbx
  402268:	5d                   	pop    %rbp
  402269:	41 5c                	pop    %r12
  40226b:	41 5d                	pop    %r13
  40226d:	c3                   	retq   
  40226e:	48 c7 c0 ff ff ff ff 	mov    $0xffffffffffffffff,%rax
  402275:	eb ec                	jmp    402263 <rio_writen+0x4a>

0000000000402277 <rio_read>:
  402277:	41 55                	push   %r13
  402279:	41 54                	push   %r12
  40227b:	55                   	push   %rbp
  40227c:	53                   	push   %rbx
  40227d:	48 83 ec 08          	sub    $0x8,%rsp
  402281:	48 89 fb             	mov    %rdi,%rbx
  402284:	49 89 f5             	mov    %rsi,%r13
  402287:	49 89 d4             	mov    %rdx,%r12
  40228a:	eb 0a                	jmp    402296 <rio_read+0x1f>
  40228c:	e8 ef e9 ff ff       	callq  400c80 <__errno_location@plt>
  402291:	83 38 04             	cmpl   $0x4,(%rax)
  402294:	75 5c                	jne    4022f2 <rio_read+0x7b>
  402296:	8b 6b 04             	mov    0x4(%rbx),%ebp
  402299:	85 ed                	test   %ebp,%ebp
  40229b:	7f 24                	jg     4022c1 <rio_read+0x4a>
  40229d:	48 8d 6b 10          	lea    0x10(%rbx),%rbp
  4022a1:	8b 3b                	mov    (%rbx),%edi
  4022a3:	ba 00 20 00 00       	mov    $0x2000,%edx
  4022a8:	48 89 ee             	mov    %rbp,%rsi
  4022ab:	e8 80 ea ff ff       	callq  400d30 <read@plt>
  4022b0:	89 43 04             	mov    %eax,0x4(%rbx)
  4022b3:	85 c0                	test   %eax,%eax
  4022b5:	78 d5                	js     40228c <rio_read+0x15>
  4022b7:	85 c0                	test   %eax,%eax
  4022b9:	74 40                	je     4022fb <rio_read+0x84>
  4022bb:	48 89 6b 08          	mov    %rbp,0x8(%rbx)
  4022bf:	eb d5                	jmp    402296 <rio_read+0x1f>
  4022c1:	89 e8                	mov    %ebp,%eax
  4022c3:	4c 39 e0             	cmp    %r12,%rax
  4022c6:	72 03                	jb     4022cb <rio_read+0x54>
  4022c8:	44 89 e5             	mov    %r12d,%ebp
  4022cb:	4c 63 e5             	movslq %ebp,%r12
  4022ce:	48 8b 73 08          	mov    0x8(%rbx),%rsi
  4022d2:	4c 89 e2             	mov    %r12,%rdx
  4022d5:	4c 89 ef             	mov    %r13,%rdi
  4022d8:	e8 a3 ea ff ff       	callq  400d80 <memcpy@plt>
  4022dd:	4c 01 63 08          	add    %r12,0x8(%rbx)
  4022e1:	29 6b 04             	sub    %ebp,0x4(%rbx)
  4022e4:	4c 89 e0             	mov    %r12,%rax
  4022e7:	48 83 c4 08          	add    $0x8,%rsp
  4022eb:	5b                   	pop    %rbx
  4022ec:	5d                   	pop    %rbp
  4022ed:	41 5c                	pop    %r12
  4022ef:	41 5d                	pop    %r13
  4022f1:	c3                   	retq   
  4022f2:	48 c7 c0 ff ff ff ff 	mov    $0xffffffffffffffff,%rax
  4022f9:	eb ec                	jmp    4022e7 <rio_read+0x70>
  4022fb:	b8 00 00 00 00       	mov    $0x0,%eax
  402300:	eb e5                	jmp    4022e7 <rio_read+0x70>

0000000000402302 <rio_readlineb>:
  402302:	41 55                	push   %r13
  402304:	41 54                	push   %r12
  402306:	55                   	push   %rbp
  402307:	53                   	push   %rbx
  402308:	48 83 ec 18          	sub    $0x18,%rsp
  40230c:	49 89 fd             	mov    %rdi,%r13
  40230f:	48 89 f5             	mov    %rsi,%rbp
  402312:	49 89 d4             	mov    %rdx,%r12
  402315:	64 48 8b 04 25 28 00 	mov    %fs:0x28,%rax
  40231c:	00 00 
  40231e:	48 89 44 24 08       	mov    %rax,0x8(%rsp)
  402323:	31 c0                	xor    %eax,%eax
  402325:	bb 01 00 00 00       	mov    $0x1,%ebx
  40232a:	4c 39 e3             	cmp    %r12,%rbx
  40232d:	73 47                	jae    402376 <rio_readlineb+0x74>
  40232f:	ba 01 00 00 00       	mov    $0x1,%edx
  402334:	48 8d 74 24 07       	lea    0x7(%rsp),%rsi
  402339:	4c 89 ef             	mov    %r13,%rdi
  40233c:	e8 36 ff ff ff       	callq  402277 <rio_read>
  402341:	83 f8 01             	cmp    $0x1,%eax
  402344:	75 1c                	jne    402362 <rio_readlineb+0x60>
  402346:	48 8d 45 01          	lea    0x1(%rbp),%rax
  40234a:	0f b6 54 24 07       	movzbl 0x7(%rsp),%edx
  40234f:	88 55 00             	mov    %dl,0x0(%rbp)
  402352:	80 7c 24 07 0a       	cmpb   $0xa,0x7(%rsp)
  402357:	74 1a                	je     402373 <rio_readlineb+0x71>
  402359:	48 83 c3 01          	add    $0x1,%rbx
  40235d:	48 89 c5             	mov    %rax,%rbp
  402360:	eb c8                	jmp    40232a <rio_readlineb+0x28>
  402362:	85 c0                	test   %eax,%eax
  402364:	75 32                	jne    402398 <rio_readlineb+0x96>
  402366:	48 83 fb 01          	cmp    $0x1,%rbx
  40236a:	75 0a                	jne    402376 <rio_readlineb+0x74>
  40236c:	b8 00 00 00 00       	mov    $0x0,%eax
  402371:	eb 0a                	jmp    40237d <rio_readlineb+0x7b>
  402373:	48 89 c5             	mov    %rax,%rbp
  402376:	c6 45 00 00          	movb   $0x0,0x0(%rbp)
  40237a:	48 89 d8             	mov    %rbx,%rax
  40237d:	48 8b 4c 24 08       	mov    0x8(%rsp),%rcx
  402382:	64 48 33 0c 25 28 00 	xor    %fs:0x28,%rcx
  402389:	00 00 
  40238b:	75 14                	jne    4023a1 <rio_readlineb+0x9f>
  40238d:	48 83 c4 18          	add    $0x18,%rsp
  402391:	5b                   	pop    %rbx
  402392:	5d                   	pop    %rbp
  402393:	41 5c                	pop    %r12
  402395:	41 5d                	pop    %r13
  402397:	c3                   	retq   
  402398:	48 c7 c0 ff ff ff ff 	mov    $0xffffffffffffffff,%rax
  40239f:	eb dc                	jmp    40237d <rio_readlineb+0x7b>
  4023a1:	e8 3a e9 ff ff       	callq  400ce0 <__stack_chk_fail@plt>

00000000004023a6 <urlencode>:
  4023a6:	41 54                	push   %r12
  4023a8:	55                   	push   %rbp
  4023a9:	53                   	push   %rbx
  4023aa:	48 83 ec 10          	sub    $0x10,%rsp
  4023ae:	48 89 fb             	mov    %rdi,%rbx
  4023b1:	48 89 f5             	mov    %rsi,%rbp
  4023b4:	64 48 8b 04 25 28 00 	mov    %fs:0x28,%rax
  4023bb:	00 00 
  4023bd:	48 89 44 24 08       	mov    %rax,0x8(%rsp)
  4023c2:	31 c0                	xor    %eax,%eax
  4023c4:	48 c7 c1 ff ff ff ff 	mov    $0xffffffffffffffff,%rcx
  4023cb:	f2 ae                	repnz scas %es:(%rdi),%al
  4023cd:	48 89 ce             	mov    %rcx,%rsi
  4023d0:	48 f7 d6             	not    %rsi
  4023d3:	8d 46 ff             	lea    -0x1(%rsi),%eax
  4023d6:	eb 0f                	jmp    4023e7 <urlencode+0x41>
  4023d8:	44 88 45 00          	mov    %r8b,0x0(%rbp)
  4023dc:	48 8d 6d 01          	lea    0x1(%rbp),%rbp
  4023e0:	48 83 c3 01          	add    $0x1,%rbx
  4023e4:	44 89 e0             	mov    %r12d,%eax
  4023e7:	44 8d 60 ff          	lea    -0x1(%rax),%r12d
  4023eb:	85 c0                	test   %eax,%eax
  4023ed:	0f 84 a6 00 00 00    	je     402499 <urlencode+0xf3>
  4023f3:	44 0f b6 03          	movzbl (%rbx),%r8d
  4023f7:	41 80 f8 2a          	cmp    $0x2a,%r8b
  4023fb:	0f 94 c2             	sete   %dl
  4023fe:	41 80 f8 2d          	cmp    $0x2d,%r8b
  402402:	0f 94 c0             	sete   %al
  402405:	08 c2                	or     %al,%dl
  402407:	75 cf                	jne    4023d8 <urlencode+0x32>
  402409:	41 80 f8 2e          	cmp    $0x2e,%r8b
  40240d:	74 c9                	je     4023d8 <urlencode+0x32>
  40240f:	41 80 f8 5f          	cmp    $0x5f,%r8b
  402413:	74 c3                	je     4023d8 <urlencode+0x32>
  402415:	41 8d 40 d0          	lea    -0x30(%r8),%eax
  402419:	3c 09                	cmp    $0x9,%al
  40241b:	76 bb                	jbe    4023d8 <urlencode+0x32>
  40241d:	41 8d 40 bf          	lea    -0x41(%r8),%eax
  402421:	3c 19                	cmp    $0x19,%al
  402423:	76 b3                	jbe    4023d8 <urlencode+0x32>
  402425:	41 8d 40 9f          	lea    -0x61(%r8),%eax
  402429:	3c 19                	cmp    $0x19,%al
  40242b:	76 ab                	jbe    4023d8 <urlencode+0x32>
  40242d:	41 80 f8 20          	cmp    $0x20,%r8b
  402431:	74 54                	je     402487 <urlencode+0xe1>
  402433:	41 8d 40 e0          	lea    -0x20(%r8),%eax
  402437:	3c 5f                	cmp    $0x5f,%al
  402439:	0f 96 c2             	setbe  %dl
  40243c:	41 80 f8 09          	cmp    $0x9,%r8b
  402440:	0f 94 c0             	sete   %al
  402443:	08 c2                	or     %al,%dl
  402445:	74 4d                	je     402494 <urlencode+0xee>
  402447:	45 0f b6 c0          	movzbl %r8b,%r8d
  40244b:	b9 78 37 40 00       	mov    $0x403778,%ecx
  402450:	ba 08 00 00 00       	mov    $0x8,%edx
  402455:	be 01 00 00 00       	mov    $0x1,%esi
  40245a:	48 89 e7             	mov    %rsp,%rdi
  40245d:	b8 00 00 00 00       	mov    $0x0,%eax
  402462:	e8 f9 e9 ff ff       	callq  400e60 <__sprintf_chk@plt>
  402467:	0f b6 04 24          	movzbl (%rsp),%eax
  40246b:	88 45 00             	mov    %al,0x0(%rbp)
  40246e:	0f b6 44 24 01       	movzbl 0x1(%rsp),%eax
  402473:	88 45 01             	mov    %al,0x1(%rbp)
  402476:	0f b6 44 24 02       	movzbl 0x2(%rsp),%eax
  40247b:	88 45 02             	mov    %al,0x2(%rbp)
  40247e:	48 8d 6d 03          	lea    0x3(%rbp),%rbp
  402482:	e9 59 ff ff ff       	jmpq   4023e0 <urlencode+0x3a>
  402487:	c6 45 00 2b          	movb   $0x2b,0x0(%rbp)
  40248b:	48 8d 6d 01          	lea    0x1(%rbp),%rbp
  40248f:	e9 4c ff ff ff       	jmpq   4023e0 <urlencode+0x3a>
  402494:	b8 ff ff ff ff       	mov    $0xffffffff,%eax
  402499:	48 8b 74 24 08       	mov    0x8(%rsp),%rsi
  40249e:	64 48 33 34 25 28 00 	xor    %fs:0x28,%rsi
  4024a5:	00 00 
  4024a7:	75 09                	jne    4024b2 <urlencode+0x10c>
  4024a9:	48 83 c4 10          	add    $0x10,%rsp
  4024ad:	5b                   	pop    %rbx
  4024ae:	5d                   	pop    %rbp
  4024af:	41 5c                	pop    %r12
  4024b1:	c3                   	retq   
  4024b2:	e8 29 e8 ff ff       	callq  400ce0 <__stack_chk_fail@plt>

00000000004024b7 <submitr>:
  4024b7:	41 57                	push   %r15
  4024b9:	41 56                	push   %r14
  4024bb:	41 55                	push   %r13
  4024bd:	41 54                	push   %r12
  4024bf:	55                   	push   %rbp
  4024c0:	53                   	push   %rbx
  4024c1:	48 81 ec 58 a0 00 00 	sub    $0xa058,%rsp
  4024c8:	49 89 fc             	mov    %rdi,%r12
  4024cb:	89 74 24 04          	mov    %esi,0x4(%rsp)
  4024cf:	49 89 d7             	mov    %rdx,%r15
  4024d2:	49 89 ce             	mov    %rcx,%r14
  4024d5:	4c 89 44 24 08       	mov    %r8,0x8(%rsp)
  4024da:	4d 89 cd             	mov    %r9,%r13
  4024dd:	48 8b ac 24 90 a0 00 	mov    0xa090(%rsp),%rbp
  4024e4:	00 
  4024e5:	64 48 8b 04 25 28 00 	mov    %fs:0x28,%rax
  4024ec:	00 00 
  4024ee:	48 89 84 24 48 a0 00 	mov    %rax,0xa048(%rsp)
  4024f5:	00 
  4024f6:	31 c0                	xor    %eax,%eax
  4024f8:	c7 44 24 1c 00 00 00 	movl   $0x0,0x1c(%rsp)
  4024ff:	00 
  402500:	ba 00 00 00 00       	mov    $0x0,%edx
  402505:	be 01 00 00 00       	mov    $0x1,%esi
  40250a:	bf 02 00 00 00       	mov    $0x2,%edi
  40250f:	e8 5c e9 ff ff       	callq  400e70 <socket@plt>
  402514:	85 c0                	test   %eax,%eax
  402516:	0f 88 9b 02 00 00    	js     4027b7 <submitr+0x300>
  40251c:	89 c3                	mov    %eax,%ebx
  40251e:	4c 89 e7             	mov    %r12,%rdi
  402521:	e8 2a e8 ff ff       	callq  400d50 <gethostbyname@plt>
  402526:	48 85 c0             	test   %rax,%rax
  402529:	0f 84 d4 02 00 00    	je     402803 <submitr+0x34c>
  40252f:	48 c7 44 24 22 00 00 	movq   $0x0,0x22(%rsp)
  402536:	00 00 
  402538:	c7 44 24 2a 00 00 00 	movl   $0x0,0x2a(%rsp)
  40253f:	00 
  402540:	66 c7 44 24 2e 00 00 	movw   $0x0,0x2e(%rsp)
  402547:	66 c7 44 24 20 02 00 	movw   $0x2,0x20(%rsp)
  40254e:	48 63 50 14          	movslq 0x14(%rax),%rdx
  402552:	48 8b 40 18          	mov    0x18(%rax),%rax
  402556:	48 8b 30             	mov    (%rax),%rsi
  402559:	48 8d 7c 24 24       	lea    0x24(%rsp),%rdi
  40255e:	b9 0c 00 00 00       	mov    $0xc,%ecx
  402563:	e8 f8 e7 ff ff       	callq  400d60 <__memmove_chk@plt>
  402568:	0f b7 44 24 04       	movzwl 0x4(%rsp),%eax
  40256d:	66 c1 c8 08          	ror    $0x8,%ax
  402571:	66 89 44 24 22       	mov    %ax,0x22(%rsp)
  402576:	ba 10 00 00 00       	mov    $0x10,%edx
  40257b:	48 8d 74 24 20       	lea    0x20(%rsp),%rsi
  402580:	89 df                	mov    %ebx,%edi
  402582:	e8 b9 e8 ff ff       	callq  400e40 <connect@plt>
  402587:	85 c0                	test   %eax,%eax
  402589:	0f 88 dc 02 00 00    	js     40286b <submitr+0x3b4>
  40258f:	48 c7 c6 ff ff ff ff 	mov    $0xffffffffffffffff,%rsi
  402596:	b8 00 00 00 00       	mov    $0x0,%eax
  40259b:	48 89 f1             	mov    %rsi,%rcx
  40259e:	4c 89 ef             	mov    %r13,%rdi
  4025a1:	f2 ae                	repnz scas %es:(%rdi),%al
  4025a3:	48 89 ca             	mov    %rcx,%rdx
  4025a6:	48 f7 d2             	not    %rdx
  4025a9:	48 89 f1             	mov    %rsi,%rcx
  4025ac:	4c 89 ff             	mov    %r15,%rdi
  4025af:	f2 ae                	repnz scas %es:(%rdi),%al
  4025b1:	48 f7 d1             	not    %rcx
  4025b4:	49 89 c8             	mov    %rcx,%r8
  4025b7:	48 89 f1             	mov    %rsi,%rcx
  4025ba:	4c 89 f7             	mov    %r14,%rdi
  4025bd:	f2 ae                	repnz scas %es:(%rdi),%al
  4025bf:	48 f7 d1             	not    %rcx
  4025c2:	4d 8d 44 08 fe       	lea    -0x2(%r8,%rcx,1),%r8
  4025c7:	48 89 f1             	mov    %rsi,%rcx
  4025ca:	48 8b 7c 24 08       	mov    0x8(%rsp),%rdi
  4025cf:	f2 ae                	repnz scas %es:(%rdi),%al
  4025d1:	48 89 c8             	mov    %rcx,%rax
  4025d4:	48 f7 d0             	not    %rax
  4025d7:	49 8d 4c 00 ff       	lea    -0x1(%r8,%rax,1),%rcx
  4025dc:	48 8d 44 52 fd       	lea    -0x3(%rdx,%rdx,2),%rax
  4025e1:	48 8d 84 01 80 00 00 	lea    0x80(%rcx,%rax,1),%rax
  4025e8:	00 
  4025e9:	48 3d 00 20 00 00    	cmp    $0x2000,%rax
  4025ef:	0f 87 d0 02 00 00    	ja     4028c5 <submitr+0x40e>
  4025f5:	48 8d b4 24 40 40 00 	lea    0x4040(%rsp),%rsi
  4025fc:	00 
  4025fd:	b9 00 04 00 00       	mov    $0x400,%ecx
  402602:	b8 00 00 00 00       	mov    $0x0,%eax
  402607:	48 89 f7             	mov    %rsi,%rdi
  40260a:	f3 48 ab             	rep stos %rax,%es:(%rdi)
  40260d:	4c 89 ef             	mov    %r13,%rdi
  402610:	e8 91 fd ff ff       	callq  4023a6 <urlencode>
  402615:	85 c0                	test   %eax,%eax
  402617:	0f 88 1b 03 00 00    	js     402938 <submitr+0x481>
  40261d:	4c 8d ac 24 40 20 00 	lea    0x2040(%rsp),%r13
  402624:	00 
  402625:	41 54                	push   %r12
  402627:	48 8d 84 24 48 40 00 	lea    0x4048(%rsp),%rax
  40262e:	00 
  40262f:	50                   	push   %rax
  402630:	4d 89 f9             	mov    %r15,%r9
  402633:	4d 89 f0             	mov    %r14,%r8
  402636:	b9 08 37 40 00       	mov    $0x403708,%ecx
  40263b:	ba 00 20 00 00       	mov    $0x2000,%edx
  402640:	be 01 00 00 00       	mov    $0x1,%esi
  402645:	4c 89 ef             	mov    %r13,%rdi
  402648:	b8 00 00 00 00       	mov    $0x0,%eax
  40264d:	e8 0e e8 ff ff       	callq  400e60 <__sprintf_chk@plt>
  402652:	48 c7 c1 ff ff ff ff 	mov    $0xffffffffffffffff,%rcx
  402659:	b8 00 00 00 00       	mov    $0x0,%eax
  40265e:	4c 89 ef             	mov    %r13,%rdi
  402661:	f2 ae                	repnz scas %es:(%rdi),%al
  402663:	48 89 ca             	mov    %rcx,%rdx
  402666:	48 f7 d2             	not    %rdx
  402669:	48 8d 52 ff          	lea    -0x1(%rdx),%rdx
  40266d:	4c 89 ee             	mov    %r13,%rsi
  402670:	89 df                	mov    %ebx,%edi
  402672:	e8 a2 fb ff ff       	callq  402219 <rio_writen>
  402677:	48 83 c4 10          	add    $0x10,%rsp
  40267b:	48 85 c0             	test   %rax,%rax
  40267e:	0f 88 3f 03 00 00    	js     4029c3 <submitr+0x50c>
  402684:	89 de                	mov    %ebx,%esi
  402686:	48 8d 7c 24 30       	lea    0x30(%rsp),%rdi
  40268b:	e8 49 fb ff ff       	callq  4021d9 <rio_readinitb>
  402690:	ba 00 20 00 00       	mov    $0x2000,%edx
  402695:	48 8d b4 24 40 20 00 	lea    0x2040(%rsp),%rsi
  40269c:	00 
  40269d:	48 8d 7c 24 30       	lea    0x30(%rsp),%rdi
  4026a2:	e8 5b fc ff ff       	callq  402302 <rio_readlineb>
  4026a7:	48 85 c0             	test   %rax,%rax
  4026aa:	0f 8e 82 03 00 00    	jle    402a32 <submitr+0x57b>
  4026b0:	4c 8d 84 24 40 80 00 	lea    0x8040(%rsp),%r8
  4026b7:	00 
  4026b8:	48 8d 4c 24 1c       	lea    0x1c(%rsp),%rcx
  4026bd:	48 8d 94 24 40 60 00 	lea    0x6040(%rsp),%rdx
  4026c4:	00 
  4026c5:	be 7f 37 40 00       	mov    $0x40377f,%esi
  4026ca:	48 8d bc 24 40 20 00 	lea    0x2040(%rsp),%rdi
  4026d1:	00 
  4026d2:	b8 00 00 00 00       	mov    $0x0,%eax
  4026d7:	e8 e4 e6 ff ff       	callq  400dc0 <__isoc99_sscanf@plt>
  4026dc:	48 8d b4 24 40 20 00 	lea    0x2040(%rsp),%rsi
  4026e3:	00 
  4026e4:	bf 96 37 40 00       	mov    $0x403796,%edi
  4026e9:	b9 03 00 00 00       	mov    $0x3,%ecx
  4026ee:	f3 a6                	repz cmpsb %es:(%rdi),%ds:(%rsi)
  4026f0:	0f 97 c0             	seta   %al
  4026f3:	1c 00                	sbb    $0x0,%al
  4026f5:	84 c0                	test   %al,%al
  4026f7:	0f 84 b3 03 00 00    	je     402ab0 <submitr+0x5f9>
  4026fd:	ba 00 20 00 00       	mov    $0x2000,%edx
  402702:	48 8d b4 24 40 20 00 	lea    0x2040(%rsp),%rsi
  402709:	00 
  40270a:	48 8d 7c 24 30       	lea    0x30(%rsp),%rdi
  40270f:	e8 ee fb ff ff       	callq  402302 <rio_readlineb>
  402714:	48 85 c0             	test   %rax,%rax
  402717:	7f c3                	jg     4026dc <submitr+0x225>
  402719:	48 b8 45 72 72 6f 72 	movabs $0x43203a726f727245,%rax
  402720:	3a 20 43 
  402723:	48 ba 6c 69 65 6e 74 	movabs $0x6e7520746e65696c,%rdx
  40272a:	20 75 6e 
  40272d:	48 89 45 00          	mov    %rax,0x0(%rbp)
  402731:	48 89 55 08          	mov    %rdx,0x8(%rbp)
  402735:	48 b8 61 62 6c 65 20 	movabs $0x206f7420656c6261,%rax
  40273c:	74 6f 20 
  40273f:	48 ba 72 65 61 64 20 	movabs $0x6165682064616572,%rdx
  402746:	68 65 61 
  402749:	48 89 45 10          	mov    %rax,0x10(%rbp)
  40274d:	48 89 55 18          	mov    %rdx,0x18(%rbp)
  402751:	48 b8 64 65 72 73 20 	movabs $0x6f72662073726564,%rax
  402758:	66 72 6f 
  40275b:	48 ba 6d 20 74 68 65 	movabs $0x657220656874206d,%rdx
  402762:	20 72 65 
  402765:	48 89 45 20          	mov    %rax,0x20(%rbp)
  402769:	48 89 55 28          	mov    %rdx,0x28(%rbp)
  40276d:	48 b8 73 75 6c 74 20 	movabs $0x72657320746c7573,%rax
  402774:	73 65 72 
  402777:	48 89 45 30          	mov    %rax,0x30(%rbp)
  40277b:	c7 45 38 76 65 72 00 	movl   $0x726576,0x38(%rbp)
  402782:	89 df                	mov    %ebx,%edi
  402784:	e8 97 e5 ff ff       	callq  400d20 <close@plt>
  402789:	b8 ff ff ff ff       	mov    $0xffffffff,%eax
  40278e:	48 8b 9c 24 48 a0 00 	mov    0xa048(%rsp),%rbx
  402795:	00 
  402796:	64 48 33 1c 25 28 00 	xor    %fs:0x28,%rbx
  40279d:	00 00 
  40279f:	0f 85 76 04 00 00    	jne    402c1b <submitr+0x764>
  4027a5:	48 81 c4 58 a0 00 00 	add    $0xa058,%rsp
  4027ac:	5b                   	pop    %rbx
  4027ad:	5d                   	pop    %rbp
  4027ae:	41 5c                	pop    %r12
  4027b0:	41 5d                	pop    %r13
  4027b2:	41 5e                	pop    %r14
  4027b4:	41 5f                	pop    %r15
  4027b6:	c3                   	retq   
  4027b7:	48 b8 45 72 72 6f 72 	movabs $0x43203a726f727245,%rax
  4027be:	3a 20 43 
  4027c1:	48 ba 6c 69 65 6e 74 	movabs $0x6e7520746e65696c,%rdx
  4027c8:	20 75 6e 
  4027cb:	48 89 45 00          	mov    %rax,0x0(%rbp)
  4027cf:	48 89 55 08          	mov    %rdx,0x8(%rbp)
  4027d3:	48 b8 61 62 6c 65 20 	movabs $0x206f7420656c6261,%rax
  4027da:	74 6f 20 
  4027dd:	48 ba 63 72 65 61 74 	movabs $0x7320657461657263,%rdx
  4027e4:	65 20 73 
  4027e7:	48 89 45 10          	mov    %rax,0x10(%rbp)
  4027eb:	48 89 55 18          	mov    %rdx,0x18(%rbp)
  4027ef:	c7 45 20 6f 63 6b 65 	movl   $0x656b636f,0x20(%rbp)
  4027f6:	66 c7 45 24 74 00    	movw   $0x74,0x24(%rbp)
  4027fc:	b8 ff ff ff ff       	mov    $0xffffffff,%eax
  402801:	eb 8b                	jmp    40278e <submitr+0x2d7>
  402803:	48 b8 45 72 72 6f 72 	movabs $0x44203a726f727245,%rax
  40280a:	3a 20 44 
  40280d:	48 ba 4e 53 20 69 73 	movabs $0x6e7520736920534e,%rdx
  402814:	20 75 6e 
  402817:	48 89 45 00          	mov    %rax,0x0(%rbp)
  40281b:	48 89 55 08          	mov    %rdx,0x8(%rbp)
  40281f:	48 b8 61 62 6c 65 20 	movabs $0x206f7420656c6261,%rax
  402826:	74 6f 20 
  402829:	48 ba 72 65 73 6f 6c 	movabs $0x2065766c6f736572,%rdx
  402830:	76 65 20 
  402833:	48 89 45 10          	mov    %rax,0x10(%rbp)
  402837:	48 89 55 18          	mov    %rdx,0x18(%rbp)
  40283b:	48 b8 73 65 72 76 65 	movabs $0x6120726576726573,%rax
  402842:	72 20 61 
  402845:	48 89 45 20          	mov    %rax,0x20(%rbp)
  402849:	c7 45 28 64 64 72 65 	movl   $0x65726464,0x28(%rbp)
  402850:	66 c7 45 2c 73 73    	movw   $0x7373,0x2c(%rbp)
  402856:	c6 45 2e 00          	movb   $0x0,0x2e(%rbp)
  40285a:	89 df                	mov    %ebx,%edi
  40285c:	e8 bf e4 ff ff       	callq  400d20 <close@plt>
  402861:	b8 ff ff ff ff       	mov    $0xffffffff,%eax
  402866:	e9 23 ff ff ff       	jmpq   40278e <submitr+0x2d7>
  40286b:	48 b8 45 72 72 6f 72 	movabs $0x55203a726f727245,%rax
  402872:	3a 20 55 
  402875:	48 ba 6e 61 62 6c 65 	movabs $0x6f7420656c62616e,%rdx
  40287c:	20 74 6f 
  40287f:	48 89 45 00          	mov    %rax,0x0(%rbp)
  402883:	48 89 55 08          	mov    %rdx,0x8(%rbp)
  402887:	48 b8 20 63 6f 6e 6e 	movabs $0x7463656e6e6f6320,%rax
  40288e:	65 63 74 
  402891:	48 ba 20 74 6f 20 74 	movabs $0x20656874206f7420,%rdx
  402898:	68 65 20 
  40289b:	48 89 45 10          	mov    %rax,0x10(%rbp)
  40289f:	48 89 55 18          	mov    %rdx,0x18(%rbp)
  4028a3:	c7 45 20 73 65 72 76 	movl   $0x76726573,0x20(%rbp)
  4028aa:	66 c7 45 24 65 72    	movw   $0x7265,0x24(%rbp)
  4028b0:	c6 45 26 00          	movb   $0x0,0x26(%rbp)
  4028b4:	89 df                	mov    %ebx,%edi
  4028b6:	e8 65 e4 ff ff       	callq  400d20 <close@plt>
  4028bb:	b8 ff ff ff ff       	mov    $0xffffffff,%eax
  4028c0:	e9 c9 fe ff ff       	jmpq   40278e <submitr+0x2d7>
  4028c5:	48 b8 45 72 72 6f 72 	movabs $0x52203a726f727245,%rax
  4028cc:	3a 20 52 
  4028cf:	48 ba 65 73 75 6c 74 	movabs $0x747320746c757365,%rdx
  4028d6:	20 73 74 
  4028d9:	48 89 45 00          	mov    %rax,0x0(%rbp)
  4028dd:	48 89 55 08          	mov    %rdx,0x8(%rbp)
  4028e1:	48 b8 72 69 6e 67 20 	movabs $0x6f6f7420676e6972,%rax
  4028e8:	74 6f 6f 
  4028eb:	48 ba 20 6c 61 72 67 	movabs $0x202e656772616c20,%rdx
  4028f2:	65 2e 20 
  4028f5:	48 89 45 10          	mov    %rax,0x10(%rbp)
  4028f9:	48 89 55 18          	mov    %rdx,0x18(%rbp)
  4028fd:	48 b8 49 6e 63 72 65 	movabs $0x6573616572636e49,%rax
  402904:	61 73 65 
  402907:	48 ba 20 53 55 42 4d 	movabs $0x5254494d42555320,%rdx
  40290e:	49 54 52 
  402911:	48 89 45 20          	mov    %rax,0x20(%rbp)
  402915:	48 89 55 28          	mov    %rdx,0x28(%rbp)
  402919:	48 b8 5f 4d 41 58 42 	movabs $0x46554258414d5f,%rax
  402920:	55 46 00 
  402923:	48 89 45 30          	mov    %rax,0x30(%rbp)
  402927:	89 df                	mov    %ebx,%edi
  402929:	e8 f2 e3 ff ff       	callq  400d20 <close@plt>
  40292e:	b8 ff ff ff ff       	mov    $0xffffffff,%eax
  402933:	e9 56 fe ff ff       	jmpq   40278e <submitr+0x2d7>
  402938:	48 b8 45 72 72 6f 72 	movabs $0x52203a726f727245,%rax
  40293f:	3a 20 52 
  402942:	48 ba 65 73 75 6c 74 	movabs $0x747320746c757365,%rdx
  402949:	20 73 74 
  40294c:	48 89 45 00          	mov    %rax,0x0(%rbp)
  402950:	48 89 55 08          	mov    %rdx,0x8(%rbp)
  402954:	48 b8 72 69 6e 67 20 	movabs $0x6e6f6320676e6972,%rax
  40295b:	63 6f 6e 
  40295e:	48 ba 74 61 69 6e 73 	movabs $0x6e6120736e696174,%rdx
  402965:	20 61 6e 
  402968:	48 89 45 10          	mov    %rax,0x10(%rbp)
  40296c:	48 89 55 18          	mov    %rdx,0x18(%rbp)
  402970:	48 b8 20 69 6c 6c 65 	movabs $0x6c6167656c6c6920,%rax
  402977:	67 61 6c 
  40297a:	48 ba 20 6f 72 20 75 	movabs $0x72706e7520726f20,%rdx
  402981:	6e 70 72 
  402984:	48 89 45 20          	mov    %rax,0x20(%rbp)
  402988:	48 89 55 28          	mov    %rdx,0x28(%rbp)
  40298c:	48 b8 69 6e 74 61 62 	movabs $0x20656c6261746e69,%rax
  402993:	6c 65 20 
  402996:	48 ba 63 68 61 72 61 	movabs $0x6574636172616863,%rdx
  40299d:	63 74 65 
  4029a0:	48 89 45 30          	mov    %rax,0x30(%rbp)
  4029a4:	48 89 55 38          	mov    %rdx,0x38(%rbp)
  4029a8:	66 c7 45 40 72 2e    	movw   $0x2e72,0x40(%rbp)
  4029ae:	c6 45 42 00          	movb   $0x0,0x42(%rbp)
  4029b2:	89 df                	mov    %ebx,%edi
  4029b4:	e8 67 e3 ff ff       	callq  400d20 <close@plt>
  4029b9:	b8 ff ff ff ff       	mov    $0xffffffff,%eax
  4029be:	e9 cb fd ff ff       	jmpq   40278e <submitr+0x2d7>
  4029c3:	48 b8 45 72 72 6f 72 	movabs $0x43203a726f727245,%rax
  4029ca:	3a 20 43 
  4029cd:	48 ba 6c 69 65 6e 74 	movabs $0x6e7520746e65696c,%rdx
  4029d4:	20 75 6e 
  4029d7:	48 89 45 00          	mov    %rax,0x0(%rbp)
  4029db:	48 89 55 08          	mov    %rdx,0x8(%rbp)
  4029df:	48 b8 61 62 6c 65 20 	movabs $0x206f7420656c6261,%rax
  4029e6:	74 6f 20 
  4029e9:	48 ba 77 72 69 74 65 	movabs $0x6f74206574697277,%rdx
  4029f0:	20 74 6f 
  4029f3:	48 89 45 10          	mov    %rax,0x10(%rbp)
  4029f7:	48 89 55 18          	mov    %rdx,0x18(%rbp)
  4029fb:	48 b8 20 74 68 65 20 	movabs $0x7365722065687420,%rax
  402a02:	72 65 73 
  402a05:	48 ba 75 6c 74 20 73 	movabs $0x7672657320746c75,%rdx
  402a0c:	65 72 76 
  402a0f:	48 89 45 20          	mov    %rax,0x20(%rbp)
  402a13:	48 89 55 28          	mov    %rdx,0x28(%rbp)
  402a17:	66 c7 45 30 65 72    	movw   $0x7265,0x30(%rbp)
  402a1d:	c6 45 32 00          	movb   $0x0,0x32(%rbp)
  402a21:	89 df                	mov    %ebx,%edi
  402a23:	e8 f8 e2 ff ff       	callq  400d20 <close@plt>
  402a28:	b8 ff ff ff ff       	mov    $0xffffffff,%eax
  402a2d:	e9 5c fd ff ff       	jmpq   40278e <submitr+0x2d7>
  402a32:	48 b8 45 72 72 6f 72 	movabs $0x43203a726f727245,%rax
  402a39:	3a 20 43 
  402a3c:	48 ba 6c 69 65 6e 74 	movabs $0x6e7520746e65696c,%rdx
  402a43:	20 75 6e 
  402a46:	48 89 45 00          	mov    %rax,0x0(%rbp)
  402a4a:	48 89 55 08          	mov    %rdx,0x8(%rbp)
  402a4e:	48 b8 61 62 6c 65 20 	movabs $0x206f7420656c6261,%rax
  402a55:	74 6f 20 
  402a58:	48 ba 72 65 61 64 20 	movabs $0x7269662064616572,%rdx
  402a5f:	66 69 72 
  402a62:	48 89 45 10          	mov    %rax,0x10(%rbp)
  402a66:	48 89 55 18          	mov    %rdx,0x18(%rbp)
  402a6a:	48 b8 73 74 20 68 65 	movabs $0x6564616568207473,%rax
  402a71:	61 64 65 
  402a74:	48 ba 72 20 66 72 6f 	movabs $0x72206d6f72662072,%rdx
  402a7b:	6d 20 72 
  402a7e:	48 89 45 20          	mov    %rax,0x20(%rbp)
  402a82:	48 89 55 28          	mov    %rdx,0x28(%rbp)
  402a86:	48 b8 65 73 75 6c 74 	movabs $0x657320746c757365,%rax
  402a8d:	20 73 65 
  402a90:	48 89 45 30          	mov    %rax,0x30(%rbp)
  402a94:	c7 45 38 72 76 65 72 	movl   $0x72657672,0x38(%rbp)
  402a9b:	c6 45 3c 00          	movb   $0x0,0x3c(%rbp)
  402a9f:	89 df                	mov    %ebx,%edi
  402aa1:	e8 7a e2 ff ff       	callq  400d20 <close@plt>
  402aa6:	b8 ff ff ff ff       	mov    $0xffffffff,%eax
  402aab:	e9 de fc ff ff       	jmpq   40278e <submitr+0x2d7>
  402ab0:	ba 00 20 00 00       	mov    $0x2000,%edx
  402ab5:	48 8d b4 24 40 20 00 	lea    0x2040(%rsp),%rsi
  402abc:	00 
  402abd:	48 8d 7c 24 30       	lea    0x30(%rsp),%rdi
  402ac2:	e8 3b f8 ff ff       	callq  402302 <rio_readlineb>
  402ac7:	48 85 c0             	test   %rax,%rax
  402aca:	0f 8e 90 00 00 00    	jle    402b60 <submitr+0x6a9>
  402ad0:	44 8b 44 24 1c       	mov    0x1c(%rsp),%r8d
  402ad5:	41 81 f8 c8 00 00 00 	cmp    $0xc8,%r8d
  402adc:	0f 85 02 01 00 00    	jne    402be4 <submitr+0x72d>
  402ae2:	48 8d b4 24 40 20 00 	lea    0x2040(%rsp),%rsi
  402ae9:	00 
  402aea:	48 89 ef             	mov    %rbp,%rdi
  402aed:	e8 be e1 ff ff       	callq  400cb0 <strcpy@plt>
  402af2:	89 df                	mov    %ebx,%edi
  402af4:	e8 27 e2 ff ff       	callq  400d20 <close@plt>
  402af9:	bf 90 37 40 00       	mov    $0x403790,%edi
  402afe:	b9 04 00 00 00       	mov    $0x4,%ecx
  402b03:	48 89 ee             	mov    %rbp,%rsi
  402b06:	f3 a6                	repz cmpsb %es:(%rdi),%ds:(%rsi)
  402b08:	0f 97 c0             	seta   %al
  402b0b:	1c 00                	sbb    $0x0,%al
  402b0d:	0f be c0             	movsbl %al,%eax
  402b10:	85 c0                	test   %eax,%eax
  402b12:	0f 84 76 fc ff ff    	je     40278e <submitr+0x2d7>
  402b18:	bf 94 37 40 00       	mov    $0x403794,%edi
  402b1d:	b9 05 00 00 00       	mov    $0x5,%ecx
  402b22:	48 89 ee             	mov    %rbp,%rsi
  402b25:	f3 a6                	repz cmpsb %es:(%rdi),%ds:(%rsi)
  402b27:	0f 97 c0             	seta   %al
  402b2a:	1c 00                	sbb    $0x0,%al
  402b2c:	0f be c0             	movsbl %al,%eax
  402b2f:	85 c0                	test   %eax,%eax
  402b31:	0f 84 57 fc ff ff    	je     40278e <submitr+0x2d7>
  402b37:	bf 99 37 40 00       	mov    $0x403799,%edi
  402b3c:	b9 03 00 00 00       	mov    $0x3,%ecx
  402b41:	48 89 ee             	mov    %rbp,%rsi
  402b44:	f3 a6                	repz cmpsb %es:(%rdi),%ds:(%rsi)
  402b46:	0f 97 c0             	seta   %al
  402b49:	1c 00                	sbb    $0x0,%al
  402b4b:	0f be c0             	movsbl %al,%eax
  402b4e:	85 c0                	test   %eax,%eax
  402b50:	0f 84 38 fc ff ff    	je     40278e <submitr+0x2d7>
  402b56:	b8 ff ff ff ff       	mov    $0xffffffff,%eax
  402b5b:	e9 2e fc ff ff       	jmpq   40278e <submitr+0x2d7>
  402b60:	48 b8 45 72 72 6f 72 	movabs $0x43203a726f727245,%rax
  402b67:	3a 20 43 
  402b6a:	48 ba 6c 69 65 6e 74 	movabs $0x6e7520746e65696c,%rdx
  402b71:	20 75 6e 
  402b74:	48 89 45 00          	mov    %rax,0x0(%rbp)
  402b78:	48 89 55 08          	mov    %rdx,0x8(%rbp)
  402b7c:	48 b8 61 62 6c 65 20 	movabs $0x206f7420656c6261,%rax
  402b83:	74 6f 20 
  402b86:	48 ba 72 65 61 64 20 	movabs $0x6174732064616572,%rdx
  402b8d:	73 74 61 
  402b90:	48 89 45 10          	mov    %rax,0x10(%rbp)
  402b94:	48 89 55 18          	mov    %rdx,0x18(%rbp)
  402b98:	48 b8 74 75 73 20 6d 	movabs $0x7373656d20737574,%rax
  402b9f:	65 73 73 
  402ba2:	48 ba 61 67 65 20 66 	movabs $0x6d6f726620656761,%rdx
  402ba9:	72 6f 6d 
  402bac:	48 89 45 20          	mov    %rax,0x20(%rbp)
  402bb0:	48 89 55 28          	mov    %rdx,0x28(%rbp)
  402bb4:	48 b8 20 72 65 73 75 	movabs $0x20746c7573657220,%rax
  402bbb:	6c 74 20 
  402bbe:	48 89 45 30          	mov    %rax,0x30(%rbp)
  402bc2:	c7 45 38 73 65 72 76 	movl   $0x76726573,0x38(%rbp)
  402bc9:	66 c7 45 3c 65 72    	movw   $0x7265,0x3c(%rbp)
  402bcf:	c6 45 3e 00          	movb   $0x0,0x3e(%rbp)
  402bd3:	89 df                	mov    %ebx,%edi
  402bd5:	e8 46 e1 ff ff       	callq  400d20 <close@plt>
  402bda:	b8 ff ff ff ff       	mov    $0xffffffff,%eax
  402bdf:	e9 aa fb ff ff       	jmpq   40278e <submitr+0x2d7>
  402be4:	4c 8d 8c 24 40 80 00 	lea    0x8040(%rsp),%r9
  402beb:	00 
  402bec:	b9 48 37 40 00       	mov    $0x403748,%ecx
  402bf1:	48 c7 c2 ff ff ff ff 	mov    $0xffffffffffffffff,%rdx
  402bf8:	be 01 00 00 00       	mov    $0x1,%esi
  402bfd:	48 89 ef             	mov    %rbp,%rdi
  402c00:	b8 00 00 00 00       	mov    $0x0,%eax
  402c05:	e8 56 e2 ff ff       	callq  400e60 <__sprintf_chk@plt>
  402c0a:	89 df                	mov    %ebx,%edi
  402c0c:	e8 0f e1 ff ff       	callq  400d20 <close@plt>
  402c11:	b8 ff ff ff ff       	mov    $0xffffffff,%eax
  402c16:	e9 73 fb ff ff       	jmpq   40278e <submitr+0x2d7>
  402c1b:	e8 c0 e0 ff ff       	callq  400ce0 <__stack_chk_fail@plt>

0000000000402c20 <init_timeout>:
  402c20:	85 ff                	test   %edi,%edi
  402c22:	74 26                	je     402c4a <init_timeout+0x2a>
  402c24:	53                   	push   %rbx
  402c25:	89 fb                	mov    %edi,%ebx
  402c27:	85 ff                	test   %edi,%edi
  402c29:	78 18                	js     402c43 <init_timeout+0x23>
  402c2b:	be eb 21 40 00       	mov    $0x4021eb,%esi
  402c30:	bf 0e 00 00 00       	mov    $0xe,%edi
  402c35:	e8 06 e1 ff ff       	callq  400d40 <signal@plt>
  402c3a:	89 df                	mov    %ebx,%edi
  402c3c:	e8 cf e0 ff ff       	callq  400d10 <alarm@plt>
  402c41:	5b                   	pop    %rbx
  402c42:	c3                   	retq   
  402c43:	bb 00 00 00 00       	mov    $0x0,%ebx
  402c48:	eb e1                	jmp    402c2b <init_timeout+0xb>
  402c4a:	f3 c3                	repz retq 

0000000000402c4c <init_driver>:
  402c4c:	55                   	push   %rbp
  402c4d:	53                   	push   %rbx
  402c4e:	48 83 ec 28          	sub    $0x28,%rsp
  402c52:	48 89 fd             	mov    %rdi,%rbp
  402c55:	64 48 8b 04 25 28 00 	mov    %fs:0x28,%rax
  402c5c:	00 00 
  402c5e:	48 89 44 24 18       	mov    %rax,0x18(%rsp)
  402c63:	31 c0                	xor    %eax,%eax
  402c65:	be 01 00 00 00       	mov    $0x1,%esi
  402c6a:	bf 0d 00 00 00       	mov    $0xd,%edi
  402c6f:	e8 cc e0 ff ff       	callq  400d40 <signal@plt>
  402c74:	be 01 00 00 00       	mov    $0x1,%esi
  402c79:	bf 1d 00 00 00       	mov    $0x1d,%edi
  402c7e:	e8 bd e0 ff ff       	callq  400d40 <signal@plt>
  402c83:	be 01 00 00 00       	mov    $0x1,%esi
  402c88:	bf 1d 00 00 00       	mov    $0x1d,%edi
  402c8d:	e8 ae e0 ff ff       	callq  400d40 <signal@plt>
  402c92:	ba 00 00 00 00       	mov    $0x0,%edx
  402c97:	be 01 00 00 00       	mov    $0x1,%esi
  402c9c:	bf 02 00 00 00       	mov    $0x2,%edi
  402ca1:	e8 ca e1 ff ff       	callq  400e70 <socket@plt>
  402ca6:	85 c0                	test   %eax,%eax
  402ca8:	0f 88 9c 00 00 00    	js     402d4a <init_driver+0xfe>
  402cae:	89 c3                	mov    %eax,%ebx
  402cb0:	bf 9c 37 40 00       	mov    $0x40379c,%edi
  402cb5:	e8 96 e0 ff ff       	callq  400d50 <gethostbyname@plt>
  402cba:	48 85 c0             	test   %rax,%rax
  402cbd:	0f 84 d3 00 00 00    	je     402d96 <init_driver+0x14a>
  402cc3:	48 c7 44 24 02 00 00 	movq   $0x0,0x2(%rsp)
  402cca:	00 00 
  402ccc:	c7 44 24 0a 00 00 00 	movl   $0x0,0xa(%rsp)
  402cd3:	00 
  402cd4:	66 c7 44 24 0e 00 00 	movw   $0x0,0xe(%rsp)
  402cdb:	66 c7 04 24 02 00    	movw   $0x2,(%rsp)
  402ce1:	48 63 50 14          	movslq 0x14(%rax),%rdx
  402ce5:	48 8b 40 18          	mov    0x18(%rax),%rax
  402ce9:	48 8b 30             	mov    (%rax),%rsi
  402cec:	48 8d 7c 24 04       	lea    0x4(%rsp),%rdi
  402cf1:	b9 0c 00 00 00       	mov    $0xc,%ecx
  402cf6:	e8 65 e0 ff ff       	callq  400d60 <__memmove_chk@plt>
  402cfb:	66 c7 44 24 02 3c 9a 	movw   $0x9a3c,0x2(%rsp)
  402d02:	ba 10 00 00 00       	mov    $0x10,%edx
  402d07:	48 89 e6             	mov    %rsp,%rsi
  402d0a:	89 df                	mov    %ebx,%edi
  402d0c:	e8 2f e1 ff ff       	callq  400e40 <connect@plt>
  402d11:	85 c0                	test   %eax,%eax
  402d13:	0f 88 e5 00 00 00    	js     402dfe <init_driver+0x1b2>
  402d19:	89 df                	mov    %ebx,%edi
  402d1b:	e8 00 e0 ff ff       	callq  400d20 <close@plt>
  402d20:	66 c7 45 00 4f 4b    	movw   $0x4b4f,0x0(%rbp)
  402d26:	c6 45 02 00          	movb   $0x0,0x2(%rbp)
  402d2a:	b8 00 00 00 00       	mov    $0x0,%eax
  402d2f:	48 8b 4c 24 18       	mov    0x18(%rsp),%rcx
  402d34:	64 48 33 0c 25 28 00 	xor    %fs:0x28,%rcx
  402d3b:	00 00 
  402d3d:	0f 85 0e 01 00 00    	jne    402e51 <init_driver+0x205>
  402d43:	48 83 c4 28          	add    $0x28,%rsp
  402d47:	5b                   	pop    %rbx
  402d48:	5d                   	pop    %rbp
  402d49:	c3                   	retq   
  402d4a:	48 b8 45 72 72 6f 72 	movabs $0x43203a726f727245,%rax
  402d51:	3a 20 43 
  402d54:	48 ba 6c 69 65 6e 74 	movabs $0x6e7520746e65696c,%rdx
  402d5b:	20 75 6e 
  402d5e:	48 89 45 00          	mov    %rax,0x0(%rbp)
  402d62:	48 89 55 08          	mov    %rdx,0x8(%rbp)
  402d66:	48 b8 61 62 6c 65 20 	movabs $0x206f7420656c6261,%rax
  402d6d:	74 6f 20 
  402d70:	48 ba 63 72 65 61 74 	movabs $0x7320657461657263,%rdx
  402d77:	65 20 73 
  402d7a:	48 89 45 10          	mov    %rax,0x10(%rbp)
  402d7e:	48 89 55 18          	mov    %rdx,0x18(%rbp)
  402d82:	c7 45 20 6f 63 6b 65 	movl   $0x656b636f,0x20(%rbp)
  402d89:	66 c7 45 24 74 00    	movw   $0x74,0x24(%rbp)
  402d8f:	b8 ff ff ff ff       	mov    $0xffffffff,%eax
  402d94:	eb 99                	jmp    402d2f <init_driver+0xe3>
  402d96:	48 b8 45 72 72 6f 72 	movabs $0x44203a726f727245,%rax
  402d9d:	3a 20 44 
  402da0:	48 ba 4e 53 20 69 73 	movabs $0x6e7520736920534e,%rdx
  402da7:	20 75 6e 
  402daa:	48 89 45 00          	mov    %rax,0x0(%rbp)
  402dae:	48 89 55 08          	mov    %rdx,0x8(%rbp)
  402db2:	48 b8 61 62 6c 65 20 	movabs $0x206f7420656c6261,%rax
  402db9:	74 6f 20 
  402dbc:	48 ba 72 65 73 6f 6c 	movabs $0x2065766c6f736572,%rdx
  402dc3:	76 65 20 
  402dc6:	48 89 45 10          	mov    %rax,0x10(%rbp)
  402dca:	48 89 55 18          	mov    %rdx,0x18(%rbp)
  402dce:	48 b8 73 65 72 76 65 	movabs $0x6120726576726573,%rax
  402dd5:	72 20 61 
  402dd8:	48 89 45 20          	mov    %rax,0x20(%rbp)
  402ddc:	c7 45 28 64 64 72 65 	movl   $0x65726464,0x28(%rbp)
  402de3:	66 c7 45 2c 73 73    	movw   $0x7373,0x2c(%rbp)
  402de9:	c6 45 2e 00          	movb   $0x0,0x2e(%rbp)
  402ded:	89 df                	mov    %ebx,%edi
  402def:	e8 2c df ff ff       	callq  400d20 <close@plt>
  402df4:	b8 ff ff ff ff       	mov    $0xffffffff,%eax
  402df9:	e9 31 ff ff ff       	jmpq   402d2f <init_driver+0xe3>
  402dfe:	48 b8 45 72 72 6f 72 	movabs $0x55203a726f727245,%rax
  402e05:	3a 20 55 
  402e08:	48 ba 6e 61 62 6c 65 	movabs $0x6f7420656c62616e,%rdx
  402e0f:	20 74 6f 
  402e12:	48 89 45 00          	mov    %rax,0x0(%rbp)
  402e16:	48 89 55 08          	mov    %rdx,0x8(%rbp)
  402e1a:	48 b8 20 63 6f 6e 6e 	movabs $0x7463656e6e6f6320,%rax
  402e21:	65 63 74 
  402e24:	48 ba 20 74 6f 20 73 	movabs $0x76726573206f7420,%rdx
  402e2b:	65 72 76 
  402e2e:	48 89 45 10          	mov    %rax,0x10(%rbp)
  402e32:	48 89 55 18          	mov    %rdx,0x18(%rbp)
  402e36:	66 c7 45 20 65 72    	movw   $0x7265,0x20(%rbp)
  402e3c:	c6 45 22 00          	movb   $0x0,0x22(%rbp)
  402e40:	89 df                	mov    %ebx,%edi
  402e42:	e8 d9 de ff ff       	callq  400d20 <close@plt>
  402e47:	b8 ff ff ff ff       	mov    $0xffffffff,%eax
  402e4c:	e9 de fe ff ff       	jmpq   402d2f <init_driver+0xe3>
  402e51:	e8 8a de ff ff       	callq  400ce0 <__stack_chk_fail@plt>

0000000000402e56 <driver_post>:
  402e56:	53                   	push   %rbx
  402e57:	4c 89 cb             	mov    %r9,%rbx
  402e5a:	45 85 c0             	test   %r8d,%r8d
  402e5d:	75 18                	jne    402e77 <driver_post+0x21>
  402e5f:	48 85 ff             	test   %rdi,%rdi
  402e62:	74 05                	je     402e69 <driver_post+0x13>
  402e64:	80 3f 00             	cmpb   $0x0,(%rdi)
  402e67:	75 35                	jne    402e9e <driver_post+0x48>
  402e69:	66 c7 03 4f 4b       	movw   $0x4b4f,(%rbx)
  402e6e:	c6 43 02 00          	movb   $0x0,0x2(%rbx)
  402e72:	44 89 c0             	mov    %r8d,%eax
  402e75:	5b                   	pop    %rbx
  402e76:	c3                   	retq   
  402e77:	48 89 ca             	mov    %rcx,%rdx
  402e7a:	be b4 37 40 00       	mov    $0x4037b4,%esi
  402e7f:	bf 01 00 00 00       	mov    $0x1,%edi
  402e84:	b8 00 00 00 00       	mov    $0x0,%eax
  402e89:	e8 52 df ff ff       	callq  400de0 <__printf_chk@plt>
  402e8e:	66 c7 03 4f 4b       	movw   $0x4b4f,(%rbx)
  402e93:	c6 43 02 00          	movb   $0x0,0x2(%rbx)
  402e97:	b8 00 00 00 00       	mov    $0x0,%eax
  402e9c:	eb d7                	jmp    402e75 <driver_post+0x1f>
  402e9e:	48 83 ec 08          	sub    $0x8,%rsp
  402ea2:	41 51                	push   %r9
  402ea4:	49 89 c9             	mov    %rcx,%r9
  402ea7:	49 89 d0             	mov    %rdx,%r8
  402eaa:	48 89 f9             	mov    %rdi,%rcx
  402ead:	48 89 f2             	mov    %rsi,%rdx
  402eb0:	be 9a 3c 00 00       	mov    $0x3c9a,%esi
  402eb5:	bf 9c 37 40 00       	mov    $0x40379c,%edi
  402eba:	e8 f8 f5 ff ff       	callq  4024b7 <submitr>
  402ebf:	48 83 c4 10          	add    $0x10,%rsp
  402ec3:	eb b0                	jmp    402e75 <driver_post+0x1f>

0000000000402ec5 <check>:
  402ec5:	89 f8                	mov    %edi,%eax
  402ec7:	c1 e8 1c             	shr    $0x1c,%eax
  402eca:	85 c0                	test   %eax,%eax
  402ecc:	74 1d                	je     402eeb <check+0x26>
  402ece:	b9 00 00 00 00       	mov    $0x0,%ecx
  402ed3:	83 f9 1f             	cmp    $0x1f,%ecx
  402ed6:	7f 0d                	jg     402ee5 <check+0x20>
  402ed8:	89 f8                	mov    %edi,%eax
  402eda:	d3 e8                	shr    %cl,%eax
  402edc:	3c 0a                	cmp    $0xa,%al
  402ede:	74 11                	je     402ef1 <check+0x2c>
  402ee0:	83 c1 08             	add    $0x8,%ecx
  402ee3:	eb ee                	jmp    402ed3 <check+0xe>
  402ee5:	b8 01 00 00 00       	mov    $0x1,%eax
  402eea:	c3                   	retq   
  402eeb:	b8 00 00 00 00       	mov    $0x0,%eax
  402ef0:	c3                   	retq   
  402ef1:	b8 00 00 00 00       	mov    $0x0,%eax
  402ef6:	c3                   	retq   

0000000000402ef7 <gencookie>:
  402ef7:	53                   	push   %rbx
  402ef8:	83 c7 01             	add    $0x1,%edi
  402efb:	e8 90 dd ff ff       	callq  400c90 <srandom@plt>
  402f00:	e8 9b de ff ff       	callq  400da0 <random@plt>
  402f05:	89 c3                	mov    %eax,%ebx
  402f07:	89 c7                	mov    %eax,%edi
  402f09:	e8 b7 ff ff ff       	callq  402ec5 <check>
  402f0e:	85 c0                	test   %eax,%eax
  402f10:	74 ee                	je     402f00 <gencookie+0x9>
  402f12:	89 d8                	mov    %ebx,%eax
  402f14:	5b                   	pop    %rbx
  402f15:	c3                   	retq   
  402f16:	66 2e 0f 1f 84 00 00 	nopw   %cs:0x0(%rax,%rax,1)
  402f1d:	00 00 00 

0000000000402f20 <__libc_csu_init>:
  402f20:	41 57                	push   %r15
  402f22:	41 56                	push   %r14
  402f24:	49 89 d7             	mov    %rdx,%r15
  402f27:	41 55                	push   %r13
  402f29:	41 54                	push   %r12
  402f2b:	4c 8d 25 de 1e 20 00 	lea    0x201ede(%rip),%r12        # 604e10 <__frame_dummy_init_array_entry>
  402f32:	55                   	push   %rbp
  402f33:	48 8d 2d de 1e 20 00 	lea    0x201ede(%rip),%rbp        # 604e18 <__init_array_end>
  402f3a:	53                   	push   %rbx
  402f3b:	41 89 fd             	mov    %edi,%r13d
  402f3e:	49 89 f6             	mov    %rsi,%r14
  402f41:	4c 29 e5             	sub    %r12,%rbp
  402f44:	48 83 ec 08          	sub    $0x8,%rsp
  402f48:	48 c1 fd 03          	sar    $0x3,%rbp
  402f4c:	e8 f7 dc ff ff       	callq  400c48 <_init>
  402f51:	48 85 ed             	test   %rbp,%rbp
  402f54:	74 20                	je     402f76 <__libc_csu_init+0x56>
  402f56:	31 db                	xor    %ebx,%ebx
  402f58:	0f 1f 84 00 00 00 00 	nopl   0x0(%rax,%rax,1)
  402f5f:	00 
  402f60:	4c 89 fa             	mov    %r15,%rdx
  402f63:	4c 89 f6             	mov    %r14,%rsi
  402f66:	44 89 ef             	mov    %r13d,%edi
  402f69:	41 ff 14 dc          	callq  *(%r12,%rbx,8)
  402f6d:	48 83 c3 01          	add    $0x1,%rbx
  402f71:	48 39 dd             	cmp    %rbx,%rbp
  402f74:	75 ea                	jne    402f60 <__libc_csu_init+0x40>
  402f76:	48 83 c4 08          	add    $0x8,%rsp
  402f7a:	5b                   	pop    %rbx
  402f7b:	5d                   	pop    %rbp
  402f7c:	41 5c                	pop    %r12
  402f7e:	41 5d                	pop    %r13
  402f80:	41 5e                	pop    %r14
  402f82:	41 5f                	pop    %r15
  402f84:	c3                   	retq   
  402f85:	90                   	nop
  402f86:	66 2e 0f 1f 84 00 00 	nopw   %cs:0x0(%rax,%rax,1)
  402f8d:	00 00 00 

0000000000402f90 <__libc_csu_fini>:
  402f90:	f3 c3                	repz retq 

Disassembly of section .fini:

0000000000402f94 <_fini>:
  402f94:	48 83 ec 08          	sub    $0x8,%rsp
  402f98:	48 83 c4 08          	add    $0x8,%rsp
  402f9c:	c3                   	retq   
